(lp0
(S'feel'
p1
S'like'
p2
tp3
a(S'im'
p4
S'feel'
p5
tp6
a(S'wa'
p7
S'feel'
p8
tp9
a(S'feel'
p10
S'littl'
p11
tp12
a(S'feel'
p13
S'veri'
p14
tp15
a(S'feel'
p16
S'bit'
p17
tp18
a(S'still'
p19
S'feel'
p20
tp21
a(S'feel'
p22
S'amaz'
p23
tp24
a(S'make'
p25
S'feel'
p26
tp27
a(S'feel'
p28
S'realli'
p29
tp30
a(S'not'
p31
S'feel'
p32
tp33
a(S'start'
p34
S'feel'
p35
tp36
a(S'im'
p37
S'not'
p38
tp39
a(S'feel'
p40
S'overwhelm'
p41
tp42
a(S'feel'
p43
S'weird'
p44
tp45
a(S'feel'
p46
S'pretti'
p47
tp48
a(S'feel'
p49
S'strang'
p50
tp51
a(S'feel'
p52
S'thi'
p53
tp54
a(S'href'
p55
S'http'
p56
tp57
a(S'like'
p58
g37
tp59
a(S'help'
p60
S'feel'
p61
tp62
a(S'becaus'
p63
S'feel'
p64
tp65
a(S'feel'
p66
S'quit'
p67
tp68
a(S'feel'
p69
S'shock'
p70
tp71
a(S'alway'
p72
S'feel'
p73
tp74
a(S'feel'
p75
S'surpris'
p76
tp77
a(S'feel'
p78
S'wa'
p79
tp80
a(S'rememb'
p81
S'feel'
p82
tp83
a(S'would'
p84
S'feel'
p85
tp86
a(S'ive'
p87
g28
tp88
a(S'dont'
p89
S'know'
p90
tp91
a(S'realli'
p92
S'feel'
p93
tp94
a(S'feel'
p95
S'funni'
p96
tp97
a(S'didnt'
p98
S'feel'
p99
tp100
a(S'made'
p101
S'feel'
p102
tp103
a(S'left'
p104
S'feel'
p105
tp106
a(S'like'
p107
S'thi'
p108
tp109
a(S'know'
p110
S'feel'
p111
tp112
a(S'feel'
p113
S'curiou'
p114
tp115
a(S'want'
p116
S'feel'
p117
tp118
a(S'also'
p119
S'feel'
p120
tp121
a(S'feel'
p122
S'rather'
p123
tp124
a(S'feel'
p125
S'agit'
p126
tp127
a(S'feel'
p128
S'helpless'
p129
tp130
a(S'feel'
p131
S'less'
p132
tp133
a(S'feel'
p134
S'impress'
p135
tp136
a(S'could'
p137
S'feel'
p138
tp139
a(S'thi'
p140
S'feel'
p141
tp142
a(S'feel'
p143
S'im'
p144
tp145
a(S'feel'
p146
S'kind'
p147
tp148
a(S'feel'
p149
S'pressur'
p150
tp151
a(g32
S'irrit'
p152
tp153
a(S'time'
p154
S'feel'
p155
tp156
a(S'feel'
p157
S'slightli'
p158
tp159
a(g141
S'need'
p160
tp161
a(S'even'
p162
S'though'
p163
tp164
a(S'feel'
p165
S'daze'
p166
tp167
a(S'get'
p168
S'feel'
p169
tp170
a(S'feel'
p171
S'though'
p172
tp173
a(S'like'
p174
S'wa'
p175
tp176
a(S'cant'
p177
S'help'
p178
tp179
a(S'feel'
p180
S'complet'
p181
tp182
a(S'feel'
p183
S'stress'
p184
tp185
a(S'feel'
p186
S'hate'
p187
tp188
a(S'feel'
p189
S'insecur'
p190
tp191
a(S'not'
p192
S'sure'
p193
tp194
a(S'sometim'
p195
S'feel'
p196
tp197
a(S'feel'
p198
S'scare'
p199
tp200
a(S'feel'
p201
S'not'
p202
tp203
a(S'peopl'
p204
S'feel'
p205
tp206
a(S'littl'
p207
S'bit'
p208
tp209
a(S'becaus'
p210
S'wa'
p211
tp212
a(g56
S'www'
p213
tp214
a(S'hate'
p215
S'feel'
p216
tp217
a(S'feel'
p218
S'much'
p219
tp220
a(S'feel'
p221
S'uncomfort'
p222
tp223
a(S'feel'
p224
S'reluct'
p225
tp226
a(S'without'
p227
S'feel'
p228
tp229
a(S'like'
p230
S'feel'
p231
tp232
a(S'feel'
p233
S'extrem'
p234
tp235
a(S'whi'
p236
S'feel'
p237
tp238
a(S'feel'
p239
S'threaten'
p240
tp241
a(S'feel'
p242
S'anxiou'
p243
tp244
a(S'feel'
p245
S'angri'
p246
tp247
a(S'didn'
p248
S'feel'
p249
tp250
a(S'becaus'
p251
S'im'
p252
tp253
a(S'feel'
p254
S'disgust'
p255
tp256
a(S'im'
p257
S'go'
p258
tp259
a(g8
S'frustrat'
p260
tp261
a(g105
S'somewhat'
p262
tp263
a(S'im'
p264
S'still'
p265
tp266
a(S'everi'
p267
S'time'
p268
tp269
a(S'day'
p270
S'feel'
p271
tp272
a(S'say'
p273
S'feel'
p274
tp275
a(S'feel'
p276
S'intimid'
p277
tp278
a(S'feel'
p279
S'resent'
p280
tp281
a(S'feel'
p282
S'nervou'
p283
tp284
a(S'dont'
p285
S'want'
p286
tp287
a(S'think'
p288
S'feel'
p289
tp290
a(S'thi'
p291
S'morn'
p292
tp293
a(S'even'
p294
S'feel'
p295
tp296
a(S'wa'
p297
S'go'
p298
tp299
a(S'feel'
p300
S'vulner'
p301
tp302
a(S'feel'
p303
S'restless'
p304
tp305
a(S'feel'
p306
S'uncertain'
p307
tp308
a(g271
S'rush'
p309
tp310
a(S'feel'
p311
S'fear'
p312
tp313
a(S'feel'
p314
S'stun'
p315
tp316
a(S'feel'
p317
S'jealou'
p318
tp319
a(S'feel'
p320
S'terrifi'
p321
tp322
a(S'alreadi'
p323
S'feel'
p324
tp325
a(S'know'
p326
g236
tp327
a(S'feel'
p328
S'way'
p329
tp330
a(S'wa'
p331
S'not'
p332
tp333
a(S'feel'
p334
S'selfish'
p335
tp336
a(S'feel'
p337
S'unsur'
p338
tp339
a(S'thi'
p340
S'time'
p341
tp342
a(S'feel'
p343
S'cold'
p344
tp345
a(S'feel'
p346
S'shaki'
p347
tp348
a(S'feel'
p349
S'shi'
p350
tp351
a(S'actual'
p352
S'feel'
p353
tp354
a(g99
S'particularli'
p355
tp356
a(S'thi'
p357
S'way'
p358
tp359
a(S'feel'
p360
S'paranoid'
p361
tp362
a(S'feel'
p363
S'hesit'
p364
tp365
a(S'feel'
p366
S'afraid'
p367
tp368
a(S'feel'
p369
S'get'
p370
tp371
a(S'feel'
p372
S'bitter'
p373
tp374
a(S'feel'
p375
S'enviou'
p376
tp377
a(S'feel'
p378
S'frighten'
p379
tp380
a(S'feel'
p381
S'even'
p382
tp383
a(S'feel'
p384
S'wrong'
p385
tp386
a(S'leav'
p387
S'feel'
p388
tp389
a(S'feel'
p390
S'terribl'
p391
tp392
a(S'love'
p393
S'feel'
p394
tp395
a(S'began'
p396
S'feel'
p397
tp398
a(g35
S'insult'
p399
tp400
a(S'feel'
p401
S'fuck'
p402
tp403
a(S'feel'
p404
S'tortur'
p405
tp406
a(S'feel'
p407
S'better'
p408
tp409
a(g249
S'offend'
p410
tp411
a(g5
S'grumpi'
p412
tp413
a(S'go'
p414
S'back'
p415
tp416
a(S'like'
p417
S'ive'
p418
tp419
a(S'thi'
p420
S'week'
p421
tp422
a(S'write'
p423
S'thi'
p424
tp425
a(S'often'
p426
S'feel'
p427
tp428
a(S'feel'
p429
S'incred'
p430
tp431
a(S'thi'
p432
S'blog'
p433
tp434
a(S'thi'
p435
S'year'
p436
tp437
a(S'feel'
p438
S'dissatisfi'
p439
tp440
a(S'feel'
p441
S'feel'
p442
tp443
a(S'feel'
p444
S'kinda'
p445
tp446
a(S'feel'
p447
S'someth'
p448
tp449
a(S'woke'
p450
S'feel'
p451
tp452
a(S'not'
p453
S'know'
p454
tp455
a(S'feel'
p456
S'lot'
p457
tp458
a(S'not'
p459
S'go'
p460
tp461
a(S'wa'
p462
S'still'
p463
tp464
a(S'feel'
p465
S'confus'
p466
tp467
a(S'first'
p468
S'time'
p469
tp470
a(g120
S'impati'
p471
tp472
a(S'feel'
p473
S'cranki'
p474
tp475
a(S'thing'
p476
S'feel'
p477
tp478
a(S'one'
p479
S'day'
p480
tp481
a(S'begin'
p482
S'feel'
p483
tp484
a(S'feel'
p485
S'annoy'
p486
tp487
a(S'go'
p488
S'feel'
p489
tp490
a(S'last'
p491
S'night'
p492
tp493
a(S'feel'
p494
S'bad'
p495
tp496
a(S'admit'
p497
S'feel'
p498
tp499
a(S'not'
p500
S'onli'
p501
tp502
a(S'find'
p503
S'feel'
p504
tp505
a(S'feel'
p506
S'would'
p507
tp508
a(S'thi'
p509
S'one'
p510
tp511
a(S'feel'
p512
S'emot'
p513
tp514
a(S'use'
p515
g317
tp516
a(S'feel'
p517
S'guilti'
p518
tp519
a(S'stop'
p520
S'feel'
p521
tp522
a(S'feel'
p523
S'apprehens'
p524
tp525
a(g102
S'greedi'
p526
tp527
a(S'someon'
p528
S'els'
p529
tp530
a(S'feel'
p531
S'absolut'
p532
tp533
a(S'one'
p534
S'feel'
p535
tp536
a(S'feel'
p537
S'total'
p538
tp539
a(S'end'
p540
g233
tp541
a(S'home'
p542
S'feel'
p543
tp544
a(S'realli'
p545
S'want'
p546
tp547
a(S'feel'
p548
S'frantic'
p549
tp550
a(S'way'
p551
S'feel'
p552
tp553
a(S'feel'
p554
S'peopl'
p555
tp556
a(S'felt'
p557
S'like'
p558
tp559
a(S'could'
p560
S'not'
p561
tp562
a(S'year'
p563
S'old'
p564
tp565
a(S'would'
p566
S'like'
p567
tp568
a(S'feel'
p569
S'sorri'
p570
tp571
a(S'feel'
p572
S'horribl'
p573
tp574
a(S'feel'
p575
S'distress'
p576
tp577
a(S'onli'
p578
S'one'
p579
tp580
a(S'feel'
p581
S'miser'
p582
tp583
a(S'gon'
p584
S'na'
p585
tp586
a(S'feel'
p587
S'bitchi'
p588
tp589
a(S'thi'
p590
S'wa'
p591
tp592
a(S'feel'
p593
S'aw'
p594
tp595
a(S'feel'
p596
S'free'
p597
tp598
a(S'feel'
p599
S'good'
p600
tp601
a(S'wa'
p602
S'realli'
p603
tp604
a(S'think'
p605
S'thi'
p606
tp607
a(S'wish'
p608
S'could'
p609
tp610
a(S'like'
p611
S'go'
p612
tp613
a(g292
S'feel'
p614
tp615
a(g26
S'piss'
p616
tp617
a(S'know'
p618
S'im'
p619
tp620
a(S'dont'
p621
S'think'
p622
tp623
a(S'wa'
p624
S'veri'
p625
tp626
a(S'im'
p627
S'sure'
p628
tp629
a(S'wan'
p630
S'na'
p631
tp632
a(S'becaus'
p633
S'know'
p634
tp635
a(S'wa'
p636
S'surpris'
p637
tp638
a(S'read'
p639
S'thi'
p640
tp641
a(S'feel'
p642
S'hope'
p643
tp644
a(S'feel'
p645
S'comfort'
p646
tp647
a(S'feel'
p648
S'content'
p649
tp650
a(S'mani'
p651
S'peopl'
p652
tp653
a(S'feel'
p654
S'doubt'
p655
tp656
a(S'know'
p657
S'thi'
p658
tp659
a(S'feel'
p660
S'confid'
p661
tp662
a(S'come'
p663
S'back'
p664
tp665
a(S'thi'
p666
S'post'
p667
tp668
a(S'src'
p669
S'http'
p670
tp671
a(S'thi'
p672
S'point'
p673
tp674
a(S'longer'
p675
S'feel'
p676
tp677
a(S'feel'
p678
S'rebelli'
p679
tp680
a(S'not'
p681
S'realli'
p682
tp683
a(S'never'
p684
S'feel'
p685
tp686
a(S'id'
p687
S'feel'
p688
tp689
a(S'feel'
p690
S'pain'
p691
tp692
a(S'might'
p693
S'feel'
p694
tp695
a(S'tire'
p696
S'feel'
p697
tp698
a(S'away'
p699
S'feel'
p700
tp701
a(S'feel'
p702
S'rude'
p703
tp704
a(S'long'
p705
S'time'
p706
tp707
a(S'look'
p708
S'back'
p709
tp710
a(S'feel'
p711
S'safe'
p712
tp713
a(S'look'
p714
S'forward'
p715
tp716
a(S'feel'
p717
S'peac'
p718
tp719
a(S'today'
p720
S'feel'
p721
tp722
a(S'got'
p723
S'feel'
p724
tp725
a(S'im'
p726
S'realli'
p727
tp728
a(S'feel'
p729
S'lone'
p730
tp731
a(S'say'
p732
S'thi'
p733
tp734
a(S'right'
p735
S'feel'
p736
tp737
a(S'get'
p738
S'back'
p739
tp740
a(S'feel'
p741
S'go'
p742
tp743
a(S'like'
p744
g204
tp745
a(S'feel'
p746
S'embarrass'
p747
tp748
a(S'life'
p749
S'feel'
p750
tp751
a(S'feel'
p752
S'accept'
p753
tp754
a(S'pleasantli'
p755
S'surpris'
p756
tp757
a(g85
S'mad'
p758
tp759
a(S'feel'
p760
S'happi'
p761
tp762
a(g353
S'burden'
p763
tp764
a(S'doe'
p765
S'not'
p766
tp767
a(S'look'
p768
S'like'
p769
tp770
a(S'feel'
p771
S'awkward'
p772
tp773
a(S'dont'
p774
S'feel'
p775
tp776
a(S'let'
p777
S'go'
p778
tp779
a(S'not'
p780
S'even'
p781
tp782
a(g543
S'violent'
p783
tp784
a(S'feel'
p785
S'petti'
p786
tp787
a(S'feel'
p788
S'depress'
p789
tp790
a(S'tell'
p791
S'feel'
p792
tp793
a(S'feel'
p794
S'ani'
p795
tp796
a(S'feel'
p797
S'unwelcom'
p798
tp799
a(S'wasnt'
p800
S'feel'
p801
tp802
a(S'feel'
p803
S'heartbroken'
p804
tp805
a(S'back'
p806
S'feel'
p807
tp808
a(S'feel'
p809
S'reassur'
p810
tp811
a(S'feel'
p812
S'suspici'
p813
tp814
a(S'not'
p815
S'abl'
p816
tp817
a(S'wa'
p818
S'start'
p819
tp820
a(S'person'
p821
S'feel'
p822
tp823
a(S'feel'
p824
S'almost'
p825
tp826
a(S'not'
p827
S'want'
p828
tp829
a(S'feel'
p830
S'becaus'
p831
tp832
a(S'feel'
p833
S'invigor'
p834
tp835
a(S'daze'
p836
S'confus'
p837
tp838
a(S'last'
p839
S'week'
p840
tp841
a(S'feel'
p842
S'reject'
p843
tp844
a(S'get'
p845
S'thi'
p846
tp847
a(S'becaus'
p848
S'dont'
p849
tp850
a(S'like'
p851
S'not'
p852
tp853
a(S'feel'
p854
S'anyth'
p855
tp856
a(S'im'
p857
S'start'
p858
tp859
a(S'feel'
p860
S'well'
p861
tp862
a(S'thought'
p863
S'wa'
p864
tp865
a(S'feel'
p866
S'distract'
p867
tp868
a(S'feel'
p869
S'defeat'
p870
tp871
a(S'littl'
p872
S'overwhelm'
p873
tp874
a(S'sure'
p875
S'feel'
p876
tp877
a(S'feel'
p878
S'danger'
p879
tp880
a(S'realli'
p881
S'weird'
p882
tp883
a(S'feel'
p884
S'stupid'
p885
tp886
a(S'feel'
p887
S'ugli'
p888
tp889
a(S'feel'
p890
S'sad'
p891
tp892
a(S'like'
p893
S'need'
p894
tp895
a(S'couldnt'
p896
S'help'
p897
tp898
a(S'feel'
p899
S'letharg'
p900
tp901
a(S'feel'
p902
S'honor'
p903
tp904
a(S'feel'
p905
S'discourag'
p906
tp907
a(S'feel'
p908
S'isol'
p909
tp910
a(S'veri'
p911
S'strang'
p912
tp913
a(S'dont'
p914
S'like'
p915
tp916
a(S'feel'
p917
S'depriv'
p918
tp919
a(S'pretti'
p920
S'much'
p921
tp922
a(S'feel'
p923
S'unlov'
p924
tp925
a(S'not'
p926
S'help'
p927
tp928
a(S'think'
p929
S'im'
p930
tp931
a(S'feel'
p932
S'satisfi'
p933
tp934
a(S'need'
p935
S'feel'
p936
tp937
a(S'feel'
p938
S'bother'
p939
tp940
a(S'work'
p941
S'feel'
p942
tp943
a(S'feel'
p944
S'outrag'
p945
tp946
a(S'feel'
p947
S'especi'
p948
tp949
a(S'feel'
p950
S'exhaust'
p951
tp952
a(S'everyon'
p953
S'els'
p954
tp955
a(S'want'
p956
S'go'
p957
tp958
a(S'feel'
p959
S'alon'
p960
tp961
a(S'feel'
p962
S'sort'
p963
tp964
a(S'feel'
p965
S'fine'
p966
tp967
a(S'feel'
p968
S'bless'
p969
tp970
a(S'feel'
p971
S'adventur'
p972
tp973
a(S'feel'
p974
S'drain'
p975
tp976
a(S'thought'
p977
S'would'
p978
tp979
a(S'feel'
p980
S'fantast'
p981
tp982
a(S'feel'
p983
S'rotten'
p984
tp985
a(S'feel'
p986
S'worthless'
p987
tp988
a(S'see'
p989
S'feel'
p990
tp991
a(S'bit'
p992
S'overwhelm'
p993
tp994
a(S'feel'
p995
S'thing'
p996
tp997
a(S'feel'
p998
S'super'
p999
tp1000
a(S'feel'
p1001
S'hopeless'
p1002
tp1003
a(S'walk'
p1004
S'away'
p1005
tp1006
a(S'feel'
p1007
S'tad'
p1008
tp1009
a(S'feel'
p1010
S'gener'
p1011
tp1012
a(S'feel'
p1013
S'relax'
p1014
tp1015
a(S'feel'
p1016
S'reliev'
p1017
tp1018
a(S'didnt'
p1019
S'want'
p1020
tp1021
a(S'feel'
p1022
S'love'
p1023
tp1024
a(S'almost'
p1025
S'feel'
p1026
tp1027
a(S'feel'
p1028
S'one'
p1029
tp1030
a(S'littl'
p1031
S'weird'
p1032
tp1033
a(S'feel'
p1034
S'lousi'
p1035
tp1036
a(S'not'
p1037
S'like'
p1038
tp1039
a(S'becaus'
p1040
S'thi'
p1041
tp1042
a(S'not'
p1043
S'good'
p1044
tp1045
a(S'feel'
p1046
S'regret'
p1047
tp1048
a(S'seem'
p1049
S'like'
p1050
tp1051
a(S'feel'
p1052
S'inadequ'
p1053
tp1054
a(S'feel'
p1055
S'shaken'
p1056
tp1057
a(S'year'
p1058
S'ago'
p1059
tp1060
a(S'thi'
p1061
S'strang'
p1062
tp1063
a(S'feel'
p1064
S'skeptic'
p1065
tp1066
a(S'feel'
p1067
S'disappoint'
p1068
tp1069
a(S'realli'
p1070
S'realli'
p1071
tp1072
a(S'wa'
p1073
S'amaz'
p1074
tp1075
a(S'ever'
p1076
S'feel'
p1077
tp1078
a(S'may'
p1079
g587
tp1080
a(S'littl'
p1081
g836
tp1082
a(g38
S'get'
p1083
tp1084
a(S'want'
p1085
S'get'
p1086
tp1087
a(S'said'
p1088
S'feel'
p1089
tp1090
a(S'feel'
p1091
S'humili'
p1092
tp1093
a(S'feel'
p1094
S'brave'
p1095
tp1096
a(S'feel'
p1097
S'asham'
p1098
tp1099
a(S'ill'
p1100
S'feel'
p1101
tp1102
a(S'may'
p1103
S'not'
p1104
tp1105
a(S'would'
p1106
g31
tp1107
a(S'feel'
p1108
S'utterli'
p1109
tp1110
a(S'thing'
p1111
S'like'
p1112
tp1113
a(S'feel'
p1114
S'devast'
p1115
tp1116
a(S'feel'
p1117
S'unhappi'
p1118
tp1119
a(S'hope'
p1120
S'feel'
p1121
tp1122
a(S'kind'
p1123
S'feel'
p1124
tp1125
a(S'wa'
p1126
S'left'
p1127
tp1128
a(S'feel'
p1129
S'superior'
p1130
tp1131
a(S'wake'
p1132
S'feel'
p1133
tp1134
a(S'becaus'
p1135
g453
tp1136
a(S'time'
p1137
S'wa'
p1138
tp1139
a(S'feel'
p1140
S'homesick'
p1141
tp1142
a(S'week'
p1143
S'feel'
p1144
tp1145
a(S'feel'
p1146
S'uptight'
p1147
tp1148
a(S'img'
p1149
g669
tp1150
a(S'feel'
p1151
S'troubl'
p1152
tp1153
a(S'whole'
p1154
S'thing'
p1155
tp1156
a(S'feel'
p1157
S'glad'
p1158
tp1159
a(S'feel'
p1160
S'joy'
p1161
tp1162
a(S'though'
p1163
S'feel'
p1164
tp1165
a(S'feel'
p1166
S'excit'
p1167
tp1168
a(S'tri'
p1169
S'get'
p1170
tp1171
a(S'last'
p1172
S'year'
p1173
tp1174
a(S'found'
p1175
g375
tp1176
a(S'veri'
p1177
S'much'
p1178
tp1179
a(S'feel'
p1180
S'proud'
p1181
tp1182
a(S'feel'
p1183
S'hi'
p1184
tp1185
a(S'thi'
p1186
S'world'
p1187
tp1188
a(S'moment'
p1189
S'feel'
p1190
tp1191
a(S'feel'
p1192
S'ive'
p1193
tp1194
a(S'thi'
p1195
g633
tp1196
a(S'feel'
p1197
S'needi'
p1198
tp1199
a(S'feel'
p1200
S'respect'
p1201
tp1202
a(S'feel'
p1203
S'valu'
p1204
tp1205
a(S'feel'
p1206
S'calm'
p1207
tp1208
a(S'tri'
p1209
S'make'
p1210
tp1211
a(S'littl'
p1212
S'strang'
p1213
tp1214
a(S'feel'
p1215
S'hurt'
p1216
tp1217
a(S'feel'
p1218
S'inhibit'
p1219
tp1220
a(S'go'
p1221
S'get'
p1222
tp1223
a(S'know'
p1224
S'not'
p1225
tp1226
a(S'spend'
p1227
S'time'
p1228
tp1229
a(S'feel'
p1230
S'empti'
p1231
tp1232
a(S'one'
p1233
S'thing'
p1234
tp1235
a(S'im'
p1236
S'get'
p1237
tp1238
a(S'feel'
p1239
S'hostil'
p1240
tp1241
a(S'wa'
p1242
S'alreadi'
p1243
tp1244
a(S'feel'
p1245
S'dumb'
p1246
tp1247
a(S'feel'
p1248
S'unimport'
p1249
tp1250
a(S'like'
p1251
S'get'
p1252
tp1253
a(S'im'
p1254
S'tri'
p1255
tp1256
a(S'feel'
p1257
S'useless'
p1258
tp1259
a(S'feel'
p1260
S'disturb'
p1261
tp1262
a(S'ive'
p1263
S'never'
p1264
tp1265
a(S'feel'
p1266
S'dirti'
p1267
tp1268
a(S'feel'
p1269
S'distraught'
p1270
tp1271
a(g942
S'grouchi'
p1272
tp1273
a(S'much'
p1274
S'time'
p1275
tp1276
a(S'feel'
p1277
S'shitti'
p1278
tp1279
a(S'feel'
p1280
S'enrag'
p1281
tp1282
a(S'want'
p1283
S'make'
p1284
tp1285
a(S'thi'
p1286
S'book'
p1287
tp1288
a(S'around'
p1289
S'feel'
p1290
tp1291
a(S'like'
p1292
S'could'
p1293
tp1294
a(S'feel'
p1295
S'energet'
p1296
tp1297
a(S'feel'
p1298
S'thank'
p1299
tp1300
a(S'wa'
p1301
S'abl'
p1302
tp1303
a(S'make'
p1304
S'sure'
p1305
tp1306
a(S'feel'
p1307
S'use'
p1308
tp1309
a(S'im'
p1310
S'tire'
p1311
tp1312
a(S'feel'
p1313
S'foolish'
p1314
tp1315
a(S'suddenli'
p1316
S'feel'
p1317
tp1318
a(S'start'
p1319
S'get'
p1320
tp1321
a(S'feel'
p1322
S'ignor'
p1323
tp1324
a(S'39'
p1325
S'feel'
p1326
tp1327
a(S'feel'
p1328
S'crappi'
p1329
tp1330
a(S'feel'
p1331
S'passion'
p1332
tp1333
a(g1044
S'feel'
p1334
tp1335
a(S'feel'
p1336
S'ecstat'
p1337
tp1338
a(S'veri'
p1339
S'impress'
p1340
tp1341
a(S'feel'
p1342
S'dull'
p1343
tp1344
a(S'knew'
p1345
S'wa'
p1346
tp1347
a(S'reason'
p1348
S'feel'
p1349
tp1350
a(S'not'
p1351
g63
tp1352
a(S'realli'
p1353
S'like'
p1354
tp1355
a(S'know'
p1356
S'wa'
p1357
tp1358
a(S'wa'
p1359
S'afraid'
p1360
tp1361
a(S'feel'
p1362
S'ok'
p1363
tp1364
a(S'take'
p1365
S'care'
p1366
tp1367
a(S'feel'
p1368
S'fabul'
p1369
tp1370
a(S'look'
p1371
S'feel'
p1372
tp1373
a(S'feel'
p1374
S'gloomi'
p1375
tp1376
a(S'walk'
p1377
S'around'
p1378
tp1379
a(S'feel'
p1380
S'welcom'
p1381
tp1382
a(S'feel'
p1383
S'know'
p1384
tp1385
a(S'someth'
p1386
S'feel'
p1387
tp1388
a(S'feel'
p1389
S'groggi'
p1390
tp1391
a(S'ive'
p1392
S'got'
p1393
tp1394
a(S'feel'
p1395
S'dishearten'
p1396
tp1397
a(S'becaus'
p1398
S'want'
p1399
tp1400
a(S'mani'
p1401
S'time'
p1402
tp1403
a(S'would'
p1404
S'make'
p1405
tp1406
a(S'wont'
p1407
S'feel'
p1408
tp1409
a(S'feel'
p1410
S'terrif'
p1411
tp1412
a(S'feel'
p1413
S'sentiment'
p1414
tp1415
a(S'say'
p1416
S'someth'
p1417
tp1418
a(S'didnt'
p1419
S'know'
p1420
tp1421
a(S'veri'
p1422
S'veri'
p1423
tp1424
a(S'feel'
p1425
S'assur'
p1426
tp1427
a(S'feel'
p1428
S'strong'
p1429
tp1430
a(S'think'
p1431
S'wa'
p1432
tp1433
a(S'feel'
p1434
S'inspir'
p1435
tp1436
a(S'go'
p1437
S'home'
p1438
tp1439
a(S'feel'
p1440
S'remors'
p1441
tp1442
a(S'much'
p1443
S'better'
p1444
tp1445
a(S'feel'
p1446
S'creativ'
p1447
tp1448
a(S'bit'
p1449
S'strang'
p1450
tp1451
a(S'truli'
p1452
S'feel'
p1453
tp1454
a(S'feel'
p1455
S'lucki'
p1456
tp1457
a(S'someon'
p1458
S'feel'
p1459
tp1460
a(S'feel'
p1461
S'damn'
p1462
tp1463
a(S'feel'
p1464
S'lost'
p1465
tp1466
a(S'feel'
p1467
S'honour'
p1468
tp1469
a(S'tri'
p1470
S'not'
p1471
tp1472
a(S'good'
p1473
S'thing'
p1474
tp1475
a(S'wa'
p1476
S'shock'
p1477
tp1478
a(S'dont'
p1479
S'even'
p1480
tp1481
a(S'year'
p1482
S'feel'
p1483
tp1484
a(S'guess'
p1485
S'feel'
p1486
tp1487
a(S'come'
p1488
S'home'
p1489
tp1490
a(S'feel'
p1491
S'thrill'
p1492
tp1493
a(S'feel'
p1494
S'aggrav'
p1495
tp1496
a(S'like'
p1497
S'one'
p1498
tp1499
a(S'us'
p1500
S'feel'
p1501
tp1502
a(S'feel'
p1503
S'pathet'
p1504
tp1505
a(S'definit'
p1506
S'feel'
p1507
tp1508
a(S'feel'
p1509
S'lame'
p1510
tp1511
a(S'feel'
p1512
S'disillus'
p1513
tp1514
a(g469
g4
tp1515
a(S'feel'
p1516
S'numb'
p1517
tp1518
a(g1133
S'posit'
p1519
tp1520
a(S'feel'
p1521
S'indecis'
p1522
tp1523
a(S'happi'
p1524
S'feel'
p1525
tp1526
a(S'feel'
p1527
S'festiv'
p1528
tp1529
a(S'understand'
p1530
S'whi'
p1531
tp1532
a(S'anyon'
p1533
S'els'
p1534
tp1535
a(S'im'
p1536
S'afraid'
p1537
tp1538
a(S'feel'
p1539
S'melancholi'
p1540
tp1541
a(S'littl'
p1542
S'funni'
p1543
tp1544
a(S'feel'
p1545
S'noth'
p1546
tp1547
a(S'need'
p1548
S'get'
p1549
tp1550
a(S'thing'
p1551
S'happen'
p1552
tp1553
a(S'bit'
p1554
S'daze'
p1555
tp1556
a(g111
S'stubborn'
p1557
tp1558
a(S'take'
p1559
S'time'
p1560
tp1561
a(S'keep'
p1562
S'feel'
p1563
tp1564
a(S'feel'
p1565
S'discont'
p1566
tp1567
a(S'feel'
p1568
S'shame'
p1569
tp1570
a(S'wa'
p1571
S'also'
p1572
tp1573
a(S'like'
p1574
S'make'
p1575
tp1576
a(S'write'
p1577
S'feel'
p1578
tp1579
a(S'feel'
p1580
S'toward'
p1581
tp1582
a(S'best'
p1583
S'friend'
p1584
tp1585
a(S'everi'
p1586
S'singl'
p1587
tp1588
a(S'hurt'
p1589
S'feel'
p1590
tp1591
a(S'wonder'
p1592
S'whi'
p1593
tp1594
a(S'must'
p1595
S'feel'
p1596
tp1597
a(S'peopl'
p1598
S'around'
p1599
tp1600
a(S'like'
p1601
S'realli'
p1602
tp1603
a(S'feel'
p1604
S'privileg'
p1605
tp1606
a(S'instead'
p1607
S'feel'
p1608
tp1609
a(S'feel'
p1610
S'god'
p1611
tp1612
a(S'feel'
p1613
S'low'
p1614
tp1615
a(S'onli'
p1616
S'feel'
p1617
tp1618
a(g1480
S'know'
p1619
tp1620
a(S'like'
p1621
S'someth'
p1622
tp1623
a(S'feel'
p1624
S'time'
p1625
tp1626
a(S'friend'
p1627
S'famili'
p1628
tp1629
a(S'gener'
p1630
S'feel'
p1631
tp1632
a(S'someth'
p1633
S'like'
p1634
tp1635
a(S'feel'
p1636
S'special'
p1637
tp1638
a(S'let'
p1639
S'know'
p1640
tp1641
a(S'feel'
p1642
S'cool'
p1643
tp1644
a(S'feel'
p1645
S'think'
p1646
tp1647
a(S'thi'
p1648
S'weird'
p1649
tp1650
a(S'dont'
p1651
S'realli'
p1652
tp1653
a(S'thought'
p1654
S'feel'
p1655
tp1656
a(S'feel'
p1657
S'determin'
p1658
tp1659
a(S'feel'
p1660
S'timid'
p1661
tp1662
a(S'bad'
p1663
S'feel'
p1664
tp1665
a(S'feel'
p1666
S'alarm'
p1667
tp1668
a(S'not'
p1669
S'say'
p1670
tp1671
a(S'littl'
p1672
S'apprehens'
p1673
tp1674
a(S'wa'
p1675
g920
tp1676
a(S'told'
p1677
S'wa'
p1678
tp1679
a(S'high'
p1680
S'school'
p1681
tp1682
a(g144
S'alway'
p1683
tp1684
a(S'express'
p1685
S'feel'
p1686
tp1687
a(S'use'
p1688
S'thi'
p1689
tp1690
a(S'friend'
p1691
S'feel'
p1692
tp1693
a(S'feel'
p1694
S'truli'
p1695
tp1696
a(S'feel'
p1697
S'doom'
p1698
tp1699
a(S'point'
p1700
S'feel'
p1701
tp1702
a(S'feel'
p1703
S'success'
p1704
tp1705
a(S'must'
p1706
g497
tp1707
a(S'feel'
p1708
S'wonder'
p1709
tp1710
a(S'im'
p1711
S'also'
p1712
tp1713
a(S'usual'
p1714
S'feel'
p1715
tp1716
a(S'feel'
p1717
S'ungrat'
p1718
tp1719
a(S'talk'
p1720
S'feel'
p1721
tp1722
a(S'yet'
p1723
S'feel'
p1724
tp1725
a(S'feel'
p1726
S'cute'
p1727
tp1728
a(S'mani'
p1729
S'thing'
p1730
tp1731
a(S'feel'
p1732
S'want'
p1733
tp1734
a(S'feel'
p1735
S'mani'
p1736
tp1737
a(S'night'
p1738
S'feel'
p1739
tp1740
a(g219
S'less'
p1741
tp1742
a(S'feel'
p1743
S'anger'
p1744
tp1745
a(S'strong'
p1746
S'feel'
p1747
tp1748
a(S'feel'
p1749
S'might'
p1750
tp1751
a(S'lot'
p1752
S'time'
p1753
tp1754
a(S'cant'
p1755
S'even'
p1756
tp1757
a(S'littl'
p1758
S'less'
p1759
tp1760
a(S'feel'
p1761
S'deepli'
p1762
tp1763
a(S'feel'
p1764
S'furiou'
p1765
tp1766
a(S'understand'
p1767
S'feel'
p1768
tp1769
a(S'not'
p1770
S'make'
p1771
tp1772
a(S'dont'
p1773
S'get'
p1774
tp1775
a(S'feel'
p1776
S'ha'
p1777
tp1778
a(S'feel'
p1779
S'come'
p1780
tp1781
a(S'wa'
p1782
S'impress'
p1783
tp1784
a(S'not'
p1785
S'surpris'
p1786
tp1787
a(S'anyon'
p1788
S'feel'
p1789
tp1790
a(S'famili'
p1791
S'friend'
p1792
tp1793
a(S'wouldnt'
p1794
S'feel'
p1795
tp1796
a(S'like'
p1797
S'want'
p1798
tp1799
a(S'feel'
p1800
S'product'
p1801
tp1802
a(S'allow'
p1803
S'feel'
p1804
tp1805
a(S'read'
p1806
S'book'
p1807
tp1808
a(S'see'
p1809
S'thi'
p1810
tp1811
a(S'feel'
p1812
S'look'
p1813
tp1814
a(S'feel'
p1815
S'becom'
p1816
tp1817
a(S'would'
p1818
S'never'
p1819
tp1820
a(S'target'
p1821
S'blank'
p1822
tp1823
a(S'last'
p1824
S'time'
p1825
tp1826
a(S'say'
p1827
S'im'
p1828
tp1829
a(S'feel'
p1830
S'optimist'
p1831
tp1832
a(S'want'
p1833
S'know'
p1834
tp1835
a(S'feel'
p1836
S'someon'
p1837
tp1838
a(S'much'
p1839
S'feel'
p1840
tp1841
a(S'im'
p1842
S'sorri'
p1843
tp1844
a(S'realli'
p1845
S'need'
p1846
tp1847
a(S'thi'
p1848
S'kind'
p1849
tp1850
a(S'feel'
p1851
S'rich'
p1852
tp1853
a(S'im'
p1854
S'happi'
p1855
tp1856
a(S'wa'
p1857
S'onli'
p1858
tp1859
a(S'thi'
p1860
S'new'
p1861
tp1862
a(S'feel'
p1863
S'listless'
p1864
tp1865
a(S'feel'
p1866
S'smug'
p1867
tp1868
a(S'im'
p1869
S'alreadi'
p1870
tp1871
a(S'sure'
p1872
S'whi'
p1873
tp1874
a(S'feel'
p1875
S'strongli'
p1876
tp1877
a(S'strang'
p1878
S'sens'
p1879
tp1880
a(S'feel'
p1881
S'make'
p1882
tp1883
a(S'caus'
p1884
S'feel'
p1885
tp1886
a(S'littl'
p1887
S'thing'
p1888
tp1889
a(g733
g270
tp1890
a(S'thing'
p1891
S'go'
p1892
tp1893
a(S'not'
p1894
S'impress'
p1895
tp1896
a(S'feel'
p1897
S'still'
p1898
tp1899
a(S'like'
p1900
S'weird'
p1901
tp1902
a(S'blog'
p1903
S'post'
p1904
tp1905
a(S'im'
p1906
S'actual'
p1907
tp1908
a(S'like'
p1909
S'hate'
p1910
tp1911
a(S'feel'
p1912
S'mellow'
p1913
tp1914
a(S'weird'
p1915
S'feel'
p1916
tp1917
a(S'thi'
p1918
S'whole'
p1919
tp1920
a(S'like'
p1921
S'would'
p1922
tp1923
a(g1104
S'quit'
p1924
tp1925
a(S'feel'
p1926
S'gorgeou'
p1927
tp1928
a(S'becaus'
p1929
S'didnt'
p1930
tp1931
a(S'feel'
p1932
S'glamor'
p1933
tp1934
a(S'alon'
p1935
S'feel'
p1936
tp1937
a(S'woke'
p1938
g291
tp1939
a(S'wa'
p1940
S'littl'
p1941
tp1942
a(S'pretti'
p1943
S'good'
p1944
tp1945
a(S'feel'
p1946
S'beaten'
p1947
tp1948
a(S'say'
p1949
S'wa'
p1950
tp1951
a(S'wa'
p1952
S'get'
p1953
tp1954
a(S'good'
p1955
S'enough'
p1956
tp1957
a(S'think'
p1958
S'would'
p1959
tp1960
a(S'id'
p1961
S'like'
p1962
tp1963
a(S'know'
p1964
S'go'
p1965
tp1966
a(S'befor'
p1967
S'feel'
p1968
tp1969
a(S'veri'
p1970
S'surpris'
p1971
tp1972
a(S'late'
p1973
S'feel'
p1974
tp1975
a(S'peopl'
p1976
S'know'
p1977
tp1978
a(S'ive'
p1979
S'alway'
p1980
tp1981
a(S'thing'
p1982
S'not'
p1983
tp1984
a(S'feel'
p1985
S'insid'
p1986
tp1987
a(S'everyth'
p1988
S'feel'
p1989
tp1990
a(S'feel'
p1991
S'jade'
p1992
tp1993
a(S'blog'
p1994
g596
tp1995
a(S'hostil'
p1996
S'toward'
p1997
tp1998
a(S'never'
p1999
S'felt'
p2000
tp2001
a(S'feel'
p2002
S'sincer'
p2003
tp2004
a(S'past'
p2005
S'year'
p2006
tp2007
a(S'thi'
p2008
S'amaz'
p2009
tp2010
a(S'becaus'
p2011
S'ive'
p2012
tp2013
a(S'might'
p2014
S'not'
p2015
tp2016
a(S'amaz'
p2017
S'feel'
p2018
tp2019
a(S'miss'
p2020
S'feel'
p2021
tp2022
a(S'post'
p2023
S'thi'
p2024
tp2025
a(S'becaus'
p2026
S'make'
p2027
tp2028
a(S'not'
p2029
S'veri'
p2030
tp2031
a(S'like'
p2032
S'know'
p2033
tp2034
a(S'wa'
p2035
S'actual'
p2036
tp2037
a(S'bit'
p2038
S'apprehens'
p2039
tp2040
a(S'love'
p2041
S'thi'
p2042
tp2043
a(S'go'
p2044
S'thi'
p2045
tp2046
a(S'describ'
p2047
S'feel'
p2048
tp2049
a(S'feel'
p2050
S'carefre'
p2051
tp2052
a(S'overwhelm'
p2053
S'feel'
p2054
tp2055
a(S'feel'
p2056
S'heart'
p2057
tp2058
a(S'suppos'
p2059
S'feel'
p2060
tp2061
a(S'thi'
p2062
S'happen'
p2063
tp2064
a(S'bed'
p2065
S'feel'
p2066
tp2067
a(S'like'
p2068
S'life'
p2069
tp2070
a(S'not'
p2071
S'see'
p2072
tp2073
a(S'first'
p2074
S'day'
p2075
tp2076
a(S'feel'
p2077
S'clever'
p2078
tp2079
a(S'wa'
p2080
S'bit'
p2081
tp2082
a(S'feel'
p2083
S'triumphant'
p2084
tp2085
a(S'mean'
p2086
S'feel'
p2087
tp2088
a(S'back'
p2089
S'home'
p2090
tp2091
a(S'im'
p2092
S'left'
p2093
tp2094
a(S'though'
p2095
S'im'
p2096
tp2097
a(S'thi'
p2098
S'veri'
p2099
tp2100
a(S'know'
p2101
S'mani'
p2102
tp2103
a(S'like'
p2104
S'tortur'
p2105
tp2106
a(S'god'
p2107
S'ha'
p2108
tp2109
a(S'past'
p2110
S'week'
p2111
tp2112
a(S'wa'
p2113
g479
tp2114
a(S'watch'
p2115
S'thi'
p2116
tp2117
a(S'pretti'
p2118
S'impress'
p2119
tp2120
a(S'feel'
p2121
S'virtuou'
p2122
tp2123
a(S'anyth'
p2124
g1440
tp2125
a(S'realli'
p2126
S'impress'
p2127
tp2128
a(S'make'
p2129
S'peopl'
p2130
tp2131
a(S'ani'
p2132
S'way'
p2133
tp2134
a(S'post'
p2135
S'feel'
p2136
tp2137
a(S'someth'
p2138
S'new'
p2139
tp2140
a(S'thi'
p2141
S'littl'
p2142
tp2143
a(S'wa'
p2144
S'like'
p2145
tp2146
a(S'go'
p2147
S'bed'
p2148
tp2149
a(S'take'
p2150
S'pictur'
p2151
tp2152
a(S'less'
p2153
S'stress'
p2154
tp2155
a(S'kinda'
p2156
S'feel'
p2157
tp2158
a(S'share'
p2159
S'thi'
p2160
tp2161
a(S'feel'
p2162
S'see'
p2163
tp2164
a(S'strang'
p2165
S'feel'
p2166
tp2167
a(S'like'
p2168
S'lot'
p2169
tp2170
a(S'curiou'
p2171
S'see'
p2172
tp2173
a(S'feel'
p2174
S'intellig'
p2175
tp2176
a(S'tri'
p2177
S'feel'
p2178
tp2179
a(S'next'
p2180
S'day'
p2181
tp2182
a(S'came'
p2183
S'home'
p2184
tp2185
a(S'well'
p2186
S'feel'
p2187
tp2188
a(S'ask'
p2189
S'feel'
p2190
tp2191
a(S'feel'
p2192
S'victim'
p2193
tp2194
a(S'feel'
p2195
S'vital'
p2196
tp2197
a(S'bit'
p2198
S'shock'
p2199
tp2200
a(S'wasn'
p2201
S'feel'
p2202
tp2203
a(S'first'
p2204
S'place'
p2205
tp2206
a(S'im'
p2207
S'pretti'
p2208
tp2209
a(S'like'
p2210
S'everyon'
p2211
tp2212
a(S'thi'
p2213
S'place'
p2214
tp2215
a(S'feel'
p2216
S'life'
p2217
tp2218
a(S'go'
p2219
S'make'
p2220
tp2221
a(S'stay'
p2222
S'home'
p2223
tp2224
a(S'surpris'
p2225
S'thi'
p2226
tp2227
a(S'feel'
p2228
S'dont'
p2229
tp2230
a(S'like'
p2231
S'miss'
p2232
tp2233
a(S'last'
p2234
S'day'
p2235
tp2236
a(S'feel'
p2237
S'sure'
p2238
tp2239
a(S'thing'
p2240
S'make'
p2241
tp2242
a(S'like'
p2243
S'look'
p2244
tp2245
a(S'feel'
p2246
S'fake'
p2247
tp2248
a(S'becaus'
p2249
S'cant'
p2250
tp2251
a(S'kind'
p2252
S'weird'
p2253
tp2254
a(g268
S'get'
p2255
tp2256
a(S'get'
p2257
S'mad'
p2258
tp2259
a(S'feel'
p2260
S'import'
p2261
tp2262
a(S'feel'
p2263
S'real'
p2264
tp2265
a(S'feel'
p2266
S'ach'
p2267
tp2268
a(S'feel'
p2269
S'delici'
p2270
tp2271
a(S'amaz'
p2272
S'thi'
p2273
tp2274
a(S'feel'
p2275
S'sens'
p2276
tp2277
a(S'feel'
p2278
S'smart'
p2279
tp2280
a(S'realli'
p2281
g827
tp2282
a(S'probabl'
p2283
S'feel'
p2284
tp2285
a(S'get'
p2286
S'better'
p2287
tp2288
a(S'feel'
p2289
S'increasingli'
p2290
tp2291
a(S'like'
p2292
S'alway'
p2293
tp2294
a(S'veri'
p2295
S'curiou'
p2296
tp2297
a(S'ive'
p2298
S'done'
p2299
tp2300
a(S'thi'
p2301
S'not'
p2302
tp2303
a(S'bit'
p2304
S'stun'
p2305
tp2306
a(S'wa'
p2307
S'begin'
p2308
tp2309
a(S'feel'
p2310
S'unfortun'
p2311
tp2312
a(S'quit'
p2313
S'impress'
p2314
tp2315
a(S'feel'
p2316
S'pleasant'
p2317
tp2318
a(S'littl'
p2319
S'shaki'
p2320
tp2321
a(S'must'
p2322
S'say'
p2323
tp2324
a(S'like'
p2325
S'onli'
p2326
tp2327
a(S'continu'
p2328
g245
tp2329
a(S'thi'
p2330
S'go'
p2331
tp2332
a(S'way'
p2333
S'make'
p2334
tp2335
a(S'far'
p2336
S'away'
p2337
tp2338
a(S'honestli'
p2339
S'feel'
p2340
tp2341
a(S'didnt'
p2342
S'realli'
p2343
tp2344
a(S'feel'
p2345
S'eager'
p2346
tp2347
a(S'like'
p2348
S'dont'
p2349
tp2350
a(g724
S'person'
p2351
tp2352
a(S'feel'
p2353
S'pleasantli'
p2354
tp2355
a(S'would'
p2356
S'say'
p2357
tp2358
a(S'im'
p2359
S'glad'
p2360
tp2361
a(S'feel'
p2362
S'heartless'
p2363
tp2364
a(S'next'
p2365
S'time'
p2366
tp2367
a(S'guess'
p2368
S'im'
p2369
tp2370
a(S'wa'
p2371
S'becaus'
p2372
tp2373
a(S'know'
p2374
S'peopl'
p2375
tp2376
a(S'im'
p2377
S'veri'
p2378
tp2379
a(S'sit'
p2380
g372
tp2381
a(S'feel'
p2382
S'everi'
p2383
tp2384
a(S'hi'
p2385
g749
tp2386
a(S'let'
p2387
S'feel'
p2388
tp2389
a(S'think'
p2390
S'peopl'
p2391
tp2392
a(S'cri'
p2393
S'feel'
p2394
tp2395
a(g1178
S'like'
p2396
tp2397
a(S'like'
p2398
S'fuck'
p2399
tp2400
a(S'hard'
p2401
S'time'
p2402
tp2403
a(S'feel'
p2404
S'onli'
p2405
tp2406
a(S'come'
p2407
S'feel'
p2408
tp2409
a(S'whi'
p2410
S'im'
p2411
tp2412
a(S'place'
p2413
S'feel'
p2414
tp2415
a(S'like'
p2416
S'everyth'
p2417
tp2418
a(S'bodi'
p2419
S'feel'
p2420
tp2421
a(S'thi'
p2422
S'person'
p2423
tp2424
a(S'anyth'
p2425
S'els'
p2426
tp2427
a(S'absolut'
p2428
S'amaz'
p2429
tp2430
a(S'howev'
p2431
S'feel'
p2432
tp2433
a(S'feel'
p2434
S'weepi'
p2435
tp2436
a(S'veri'
p2437
S'funni'
p2438
tp2439
a(S'feel'
p2440
S'may'
p2441
tp2442
a(S'complet'
p2443
S'overwhelm'
p2444
tp2445
a(S'im'
p2446
S'scare'
p2447
tp2448
a(S'feel'
p2449
S'everyth'
p2450
tp2451
a(S'enough'
p2452
S'feel'
p2453
tp2454
a(S'hard'
p2455
S'feel'
p2456
tp2457
a(S'feel'
p2458
S'overli'
p2459
tp2460
a(S'not'
p2461
S'think'
p2462
tp2463
a(S'book'
p2464
S'feel'
p2465
tp2466
a(S'littl'
p2467
S'girl'
p2468
tp2469
a(S'make'
p2470
S'sens'
p2471
tp2472
a(S'im'
p2473
S'amaz'
p2474
tp2475
a(S'pretti'
p2476
S'amaz'
p2477
tp2478
a(S'like'
p2479
S'take'
p2480
tp2481
a(S'cant'
p2482
S'feel'
p2483
tp2484
a(g1255
S'find'
p2485
tp2486
a(S'like'
p2487
S'think'
p2488
tp2489
a(S'feel'
p2490
S'fairli'
p2491
tp2492
a(S'time'
p2493
S'not'
p2494
tp2495
a(S'feel'
p2496
S'ever'
p2497
tp2498
a(S'not'
p2499
S'bother'
p2500
tp2501
a(S'share'
p2502
S'feel'
p2503
tp2504
a(S'not'
p2505
S'alon'
p2506
tp2507
a(S'wa'
p2508
S'tri'
p2509
tp2510
a(S'els'
p2511
S'feel'
p2512
tp2513
a(S'not'
p2514
S'use'
p2515
tp2516
a(S'realli'
p2517
S'know'
p2518
tp2519
a(S'like'
p2520
S'write'
p2521
tp2522
a(S'want'
p2523
S'say'
p2524
tp2525
a(S'day'
p2526
S'im'
p2527
tp2528
a(S'thi'
p2529
S'weekend'
p2530
tp2531
a(S'doesnt'
p2532
S'feel'
p2533
tp2534
a(S'peopl'
p2535
S'think'
p2536
tp2537
a(S'thi'
p2538
S'past'
p2539
tp2540
a(S'littl'
p2541
S'hesit'
p2542
tp2543
a(g756
S'find'
p2544
tp2545
a(S'like'
p2546
S'crap'
p2547
tp2548
a(S'time'
p2549
S'think'
p2550
tp2551
a(S'ha'
p2552
S'happen'
p2553
tp2554
a(S'not'
p2555
S'much'
p2556
tp2557
a(S'didnt'
p2558
S'even'
p2559
tp2560
a(S'feel'
p2561
S'alway'
p2562
tp2563
a(S'becaus'
p2564
S'think'
p2565
tp2566
a(S'find'
p2567
S'way'
p2568
tp2569
a(S'feel'
p2570
S'play'
p2571
tp2572
a(S'write'
p2573
S'someth'
p2574
tp2575
a(S'still'
p2576
S'not'
p2577
tp2578
a(S'cant'
p2579
S'stop'
p2580
tp2581
a(S'feel'
p2582
S'ludicr'
p2583
tp2584
a(S'know'
p2585
S'would'
p2586
tp2587
a(S'surpris'
p2588
S'see'
p2589
tp2590
a(S'rather'
p2591
S'feel'
p2592
tp2593
a(S'dont'
p2594
S'need'
p2595
tp2596
a(S'like'
p2597
S'cant'
p2598
tp2599
a(S'say'
p2600
S'anyth'
p2601
tp2602
a(S'im'
p2603
S'surpris'
p2604
tp2605
a(S'realli'
p2606
S'enjoy'
p2607
tp2608
a(S'bit'
p2609
S'weird'
p2610
tp2611
a(S'feel'
p2612
S'artist'
p2613
tp2614
a(S'like'
p2615
S'never'
p2616
tp2617
a(S'start'
p2618
S'thi'
p2619
tp2620
a(S'whenev'
p2621
S'feel'
p2622
tp2623
a(S'didnt'
p2624
S'get'
p2625
tp2626
a(S'feel'
p2627
S'could'
p2628
tp2629
a(S'live'
p2630
S'life'
p2631
tp2632
a(S'becaus'
p2633
S'realli'
p2634
tp2635
a(S'pretti'
p2636
S'sure'
p2637
tp2638
a(S'shouldnt'
p2639
S'feel'
p2640
tp2641
a(S'look'
p2642
S'around'
p2643
tp2644
a(S'coupl'
p2645
S'week'
p2646
tp2647
a(S'becaus'
p2648
S'alway'
p2649
tp2650
a(S'got'
p2651
S'ta'
p2652
tp2653
a(S'want'
p2654
S'see'
p2655
tp2656
a(S'today'
p2657
S'becaus'
p2658
tp2659
a(S'pain'
p2660
S'feel'
p2661
tp2662
a(S'go'
p2663
S'away'
p2664
tp2665
a(S'realiz'
p2666
S'wa'
p2667
tp2668
a(S'feel'
p2669
S'neurot'
p2670
tp2671
a(S'tell'
p2672
S'peopl'
p2673
tp2674
a(S'feel'
p2675
S'cant'
p2676
tp2677
a(S'feel'
p2678
S'broke'
p2679
tp2680
a(S'life'
p2681
g1675
tp2682
a(S'feel'
p2683
S'assault'
p2684
tp2685
a(S'amaz'
p2686
S'peopl'
p2687
tp2688
a(S'better'
p2689
S'feel'
p2690
tp2691
a(S'thing'
p2692
S'get'
p2693
tp2694
a(S'thing'
p2695
S'want'
p2696
tp2697
a(S'past'
p2698
S'day'
p2699
tp2700
a(S'honest'
p2701
S'feel'
p2702
tp2703
a(S'wa'
p2704
S'curiou'
p2705
tp2706
a(S'peopl'
p2707
S'dont'
p2708
tp2709
a(S'im'
p2710
S'curiou'
p2711
tp2712
a(S'whole'
p2713
S'day'
p2714
tp2715
a(S'go'
p2716
S'see'
p2717
tp2718
a(S'cant'
p2719
S'say'
p2720
tp2721
a(S'thing'
p2722
S'im'
p2723
tp2724
a(S'sick'
p2725
S'feel'
p2726
tp2727
a(S'anoth'
p2728
S'person'
p2729
tp2730
a(S'not'
p2731
S'take'
p2732
tp2733
a(S'feel'
p2734
S'vain'
p2735
tp2736
a(S'end'
p2737
S'day'
p2738
tp2739
a(S'amaz'
p2740
S'thing'
p2741
tp2742
a(S'time'
p2743
S'thi'
p2744
tp2745
a(S'feel'
p2746
S'somehow'
p2747
tp2748
a(S'weird'
p2749
S'not'
p2750
tp2751
a(S'not'
p2752
S'let'
p2753
tp2754
a(S'month'
p2755
S'feel'
p2756
tp2757
a(S'wa'
p2758
S'right'
p2759
tp2760
a(S'wa'
p2761
S'walk'
p2762
tp2763
a(S'hate'
p2764
S'toward'
p2765
tp2766
a(S'thi'
p2767
S'moment'
p2768
tp2769
a(S'feel'
p2770
S'moment'
p2771
tp2772
a(S'feel'
p2773
S'divin'
p2774
tp2775
a(S'ask'
p2776
S'question'
p2777
tp2778
a(S'make'
p2779
S'thi'
p2780
tp2781
a(S'love'
p2782
S'one'
p2783
tp2784
a(S'head'
p2785
S'feel'
p2786
tp2787
a(S'reason'
p2788
S'whi'
p2789
tp2790
a(S'littl'
p2791
S'intimid'
p2792
tp2793
a(S'serious'
p2794
S'feel'
p2795
tp2796
a(S'wa'
p2797
S'quit'
p2798
tp2799
a(S'someth'
p2800
S'make'
p2801
tp2802
a(S'would'
p2803
S'rather'
p2804
tp2805
a(S'feel'
p2806
S'idiot'
p2807
tp2808
a(S'think'
p2809
S'thing'
p2810
tp2811
a(S'im'
p2812
S'back'
p2813
tp2814
a(S'feel'
p2815
S'far'
p2816
tp2817
a(S'need'
p2818
S'make'
p2819
tp2820
a(S'like'
p2821
S'littl'
p2822
tp2823
a(S'thing'
p2824
g2249
tp2825
a(S'feel'
p2826
S'enthral'
p2827
tp2828
a(S'feel'
p2829
S'worthwhil'
p2830
tp2831
a(S'use'
p2832
S'word'
p2833
tp2834
a(S'avoid'
p2835
S'feel'
p2836
tp2837
a(S'expect'
p2838
g2490
tp2839
a(S'weird'
p2840
S'becaus'
p2841
tp2842
a(S'hope'
p2843
S'thi'
p2844
tp2845
a(S'see'
p2846
S'peopl'
p2847
tp2848
a(S'less'
p2849
S'impress'
p2850
tp2851
a(S'hate'
p2852
S'thi'
p2853
tp2854
a(S'mix'
p2855
S'feel'
p2856
tp2857
a(S'part'
p2858
S'feel'
p2859
tp2860
a(S'resent'
p2861
S'toward'
p2862
tp2863
a(S'thi'
p2864
S'im'
p2865
tp2866
a(S'week'
p2867
S'ago'
p2868
tp2869
a(S'feel'
p2870
S'abus'
p2871
tp2872
a(S'alway'
p2873
S'want'
p2874
tp2875
a(S'friend'
p2876
S'mine'
p2877
tp2878
a(S'happen'
p2879
g494
tp2880
a(S'angri'
p2881
S'feel'
p2882
tp2883
a(S'feel'
p2884
S'suffer'
p2885
tp2886
a(g64
S'spite'
p2887
tp2888
a(S'thi'
p2889
S'even'
p2890
tp2891
a(S'surpris'
p2892
S'feel'
p2893
tp2894
a(S'feel'
p2895
S'delight'
p2896
tp2897
a(S'peopl'
p2898
S'not'
p2899
tp2900
a(S'would'
p2901
S'love'
p2902
tp2903
a(S'realli'
p2904
S'good'
p2905
tp2906
a(S'wa'
p2907
S'angri'
p2908
tp2909
a(S'littl'
p2910
S'surpris'
p2911
tp2912
a(S'like'
p2913
S'noth'
p2914
tp2915
a(S'time'
p2916
S'time'
p2917
tp2918
a(S'wa'
p2919
S'make'
p2920
tp2921
a(S'littl'
p2922
S'shock'
p2923
tp2924
a(S'wa'
p2925
S'wrong'
p2926
tp2927
a(S'could'
p2928
S'see'
p2929
tp2930
a(S'whi'
p2931
S'thi'
p2932
tp2933
a(S'thing'
p2934
S'need'
p2935
tp2936
a(S'heart'
p2937
S'feel'
p2938
tp2939
a(S'type'
p2940
S'thi'
p2941
tp2942
a(S'ask'
p2943
S'whi'
p2944
tp2945
a(S'strang'
p2946
S'not'
p2947
tp2948
a(S'not'
p2949
S'enough'
p2950
tp2951
a(S'ha'
p2952
S'made'
p2953
tp2954
a(S'back'
p2955
S'thi'
p2956
tp2957
a(S'could'
p2958
S'go'
p2959
tp2960
a(S'feel'
p2961
S'miss'
p2962
tp2963
a(S'mind'
p2964
S'feel'
p2965
tp2966
a(g90
S'need'
p2967
tp2968
a(S'like'
p2969
S'much'
p2970
tp2971
a(S'overwhelm'
p2972
S'thi'
p2973
tp2974
a(S'ani'
p2975
S'time'
p2976
tp2977
a(S'felt'
p2978
S'wa'
p2979
tp2980
a(S'feel'
p2981
S'live'
p2982
tp2983
a(S'feel'
p2984
S'watch'
p2985
tp2986
a(S'never'
p2987
g92
tp2988
a(S'like'
p2989
S'becaus'
p2990
tp2991
a(S'feel'
p2992
S'also'
p2993
tp2994
a(S'feel'
p2995
S'betray'
p2996
tp2997
a(S'part'
p2998
S'life'
p2999
tp3000
a(S'thi'
p3001
S'would'
p3002
tp3003
a(S'get'
p3004
S'angri'
p3005
tp3006
a(S'mostli'
p3007
S'becaus'
p3008
tp3009
a(S'didn'
p3010
S'want'
p3011
tp3012
a(S'thi'
p3013
S'realli'
p3014
tp3015
a(S'felt'
p3016
S'veri'
p3017
tp3018
a(S'onli'
p3019
S'thing'
p3020
tp3021
a(S'realiz'
p3022
g420
tp3023
a(S'thought'
p3024
S'id'
p3025
tp3026
a(S'like'
p3027
S'veri'
p3028
tp3029
a(S'go'
p3030
S'work'
p3031
tp3032
a(S'like'
p3033
S'say'
p3034
tp3035
a(S'feel'
p3036
S'unprotect'
p3037
tp3038
a(S'cant'
p3039
S'wait'
p3040
tp3041
a(S'feel'
p3042
S'damag'
p3043
tp3044
a(S'becaus'
p3045
S'never'
p3046
tp3047
a(S'feel'
p3048
S'guilt'
p3049
tp3050
a(S'around'
p3051
S'peopl'
p3052
tp3053
a(S'next'
p3054
S'week'
p3055
tp3056
a(S'new'
p3057
S'year'
p3058
tp3059
a(S'feel'
p3060
S'appreci'
p3061
tp3062
a(S'want'
p3063
S'talk'
p3064
tp3065
a(S'ive'
p3066
S'come'
p3067
tp3068
a(S'thi'
p3069
S'first'
p3070
tp3071
a(S'realli'
p3072
S'love'
p3073
tp3074
a(S'surpris'
p3075
S'wa'
p3076
tp3077
a(S'cant'
p3078
S'seem'
p3079
tp3080
a(S'sort'
p3081
S'feel'
p3082
tp3083
a(S'becaus'
p3084
g557
tp3085
a(S'feel'
p3086
S'sometim'
p3087
tp3088
a(S'abl'
p3089
S'feel'
p3090
tp3091
a(S'like'
p3092
S'thing'
p3093
tp3094
a(S'never'
p3095
S'want'
p3096
tp3097
a(S'doe'
p3098
S'feel'
p3099
tp3100
a(S'would'
p3101
S'go'
p3102
tp3103
a(S'like'
p3104
S'selfish'
p3105
tp3106
a(S'think'
p3107
S'might'
p3108
tp3109
a(S'bit'
p3110
S'nervou'
p3111
tp3112
a(S'hand'
p3113
S'feel'
p3114
tp3115
a(S'feel'
p3116
S'amus'
p3117
tp3118
a(S'tend'
p3119
S'feel'
p3120
tp3121
a(S'come'
p3122
S'thi'
p3123
tp3124
a(S'time'
p3125
S'around'
p3126
tp3127
a(S'not'
p3128
S'one'
p3129
tp3130
a(S'lot'
p3131
S'less'
p3132
tp3133
a(S'viciou'
p3134
S'cycl'
p3135
tp3136
a(S'feel'
p3137
S'bore'
p3138
tp3139
a(S'thi'
p3140
S'make'
p3141
tp3142
a(S'emot'
p3143
S'feel'
p3144
tp3145
a(S'get'
p3146
S'littl'
p3147
tp3148
a(S'wa'
p3149
S'think'
p3150
tp3151
a(S'take'
p3152
S'away'
p3153
tp3154
a(S'hous'
p3155
S'feel'
p3156
tp3157
a(g163
S'know'
p3158
tp3159
a(S'feel'
p3160
S'must'
p3161
tp3162
a(g286
S'give'
p3163
tp3164
a(S'admit'
p3165
S'im'
p3166
tp3167
a(S'wa'
p3168
S'told'
p3169
tp3170
a(S'got'
p3171
S'home'
p3172
tp3173
a(S'somehow'
p3174
S'feel'
p3175
tp3176
a(g160
S'someth'
p3177
tp3178
a(S'would'
p3179
S'get'
p3180
tp3181
a(S'feel'
p3182
S'convinc'
p3183
tp3184
a(S'pleas'
p3185
S'feel'
p3186
tp3187
a(S'want'
p3188
S'someth'
p3189
tp3190
a(S'sleep'
p3191
S'feel'
p3192
tp3193
a(g625
S'angri'
p3194
tp3195
a(S'im'
p3196
S'gon'
p3197
tp3198
a(S'want'
p3199
S'thi'
p3200
tp3201
a(S'good'
p3202
S'friend'
p3203
tp3204
a(S'everyth'
p3205
S'els'
p3206
tp3207
a(S'cant'
p3208
S'get'
p3209
tp3210
a(S'thi'
p3211
S'summer'
p3212
tp3213
a(S'think'
p3214
S'becaus'
p3215
tp3216
a(S'thi'
p3217
S'guy'
p3218
tp3219
a(S'tri'
p3220
S'hard'
p3221
tp3222
a(S'tell'
p3223
S'wa'
p3224
tp3225
a(S'feel'
p3226
S'innoc'
p3227
tp3228
a(S'dont'
p3229
S'care'
p3230
tp3231
a(S'feel'
p3232
S'submiss'
p3233
tp3234
a(S'even'
p3235
S'think'
p3236
tp3237
a(S'long'
p3238
S'feel'
p3239
tp3240
a(S'like'
p3241
S'tri'
p3242
tp3243
a(S'like'
p3244
S'mad'
p3245
tp3246
a(S'go'
p3247
S'life'
p3248
tp3249
a(S'thi'
p3250
S'stori'
p3251
tp3252
a(S'wa'
p3253
S'complet'
p3254
tp3255
a(S'not'
p3256
S'alway'
p3257
tp3258
a(S'keep'
p3259
S'go'
p3260
tp3261
a(S'take'
p3262
S'thi'
p3263
tp3264
a(S'went'
p3265
S'bed'
p3266
tp3267
a(S'felt'
p3268
S'feel'
p3269
tp3270
a(S'life'
p3271
S'like'
p3272
tp3273
a(S'word'
p3274
g447
tp3275
a(S'go'
p3276
S'tri'
p3277
tp3278
a(S'want'
p3279
S'someon'
p3280
tp3281
a(S'like'
p3282
S'someon'
p3283
tp3284
a(S'got'
p3285
S'thi'
p3286
tp3287
a(S'get'
p3288
S'realli'
p3289
tp3290
a(S'constantli'
p3291
S'feel'
p3292
tp3293
a(S'someth'
p3294
S'els'
p3295
tp3296
a(S'like'
p3297
S'ha'
p3298
tp3299
a(S'enough'
p3300
S'make'
p3301
tp3302
a(S'feel'
p3303
S'vile'
p3304
tp3305
a(S'time'
p3306
S'becaus'
p3307
tp3308
a(S'littl'
p3309
S'stun'
p3310
tp3311
a(S'tri'
p3312
S'keep'
p3313
tp3314
a(S'right'
p3315
S'im'
p3316
tp3317
a(S'famili'
p3318
S'feel'
p3319
tp3320
a(S'peopl'
p3321
S'love'
p3322
tp3323
a(S'veri'
p3324
S'good'
p3325
tp3326
a(g2990
S'peopl'
p3327
tp3328
a(g2250
S'bother'
p3329
tp3330
a(S'like'
p3331
S'everi'
p3332
tp3333
a(S'think'
p3334
g935
tp3335
a(S'fact'
p3336
S'feel'
p3337
tp3338
a(S'new'
p3339
S'peopl'
p3340
tp3341
a(S'ha'
p3342
S'becom'
p3343
tp3344
a(S'know'
p3345
S'could'
p3346
tp3347
a(S'veri'
p3348
S'irrit'
p3349
tp3350
a(S'one'
p3351
S'time'
p3352
tp3353
a(S'want'
p3354
S'peopl'
p3355
tp3356
a(S'feel'
p3357
S'bounci'
p3358
tp3359
a(S'final'
p3360
S'feel'
p3361
tp3362
a(S'make'
p3363
S'happi'
p3364
tp3365
a(S'mayb'
p3366
S'im'
p3367
tp3368
a(S'bit'
p3369
S'hesit'
p3370
tp3371
a(S'would'
p3372
S'realli'
p3373
tp3374
a(S'experi'
p3375
S'feel'
p3376
tp3377
a(S'know'
p3378
g230
tp3379
a(S'kept'
p3380
S'feel'
p3381
tp3382
a(S'weird'
p3383
S'thi'
p3384
tp3385
a(S'feel'
p3386
S'fab'
p3387
tp3388
a(S'ha'
p3389
S'not'
p3390
tp3391
a(S'reluct'
p3392
S'go'
p3393
tp3394
a(S'wa'
p3395
S'scare'
p3396
tp3397
a(S'get'
p3398
S'done'
p3399
tp3400
a(S'bit'
p3401
S'like'
p3402
tp3403
a(S'brave'
p3404
S'enough'
p3405
tp3406
a(S'came'
p3407
S'away'
p3408
tp3409
a(S'funni'
p3410
S'thing'
p3411
tp3412
a(S'realli'
p3413
S'get'
p3414
tp3415
a(S'know'
p3416
S'say'
p3417
tp3418
a(S'amp'
p3419
S'feel'
p3420
tp3421
a(S'feel'
p3422
S'today'
p3423
tp3424
a(S'period'
p3425
S'time'
p3426
tp3427
a(S'sad'
p3428
S'feel'
p3429
tp3430
a(S'amaz'
p3431
S'see'
p3432
tp3433
a(S'wa'
p3434
S'look'
p3435
tp3436
a(S'onc'
p3437
S'feel'
p3438
tp3439
a(S'feel'
p3440
S'say'
p3441
tp3442
a(S'say'
p3443
g1111
tp3444
a(S'wa'
p3445
S'happi'
p3446
tp3447
a(S'like'
p3448
S'give'
p3449
tp3450
a(S'abl'
p3451
S'get'
p3452
tp3453
a(S'im'
p3454
S'look'
p3455
tp3456
a(S'make'
p3457
S'ani'
p3458
tp3459
a(S'work'
p3460
S'hard'
p3461
tp3462
a(S'feel'
p3463
S'sarcast'
p3464
tp3465
a(S'bit'
p3466
S'shaki'
p3467
tp3468
a(S'without'
p3469
S'ani'
p3470
tp3471
a(S'hear'
p3472
S'peopl'
p3473
tp3474
a(S'see'
p3475
S'wa'
p3476
tp3477
a(S'coupl'
p3478
S'day'
p3479
tp3480
a(S'scare'
p3481
S'feel'
p3482
tp3483
a(S'least'
p3484
S'feel'
p3485
tp3486
a(S'feel'
p3487
S'write'
p3488
tp3489
a(S'peopl'
p3490
g3004
tp3491
a(S'though'
p3492
S'not'
p3493
tp3494
a(S'veri'
p3495
S'happi'
p3496
tp3497
a(S'could'
p3498
S'get'
p3499
tp3500
a(S'feel'
p3501
S'appal'
p3502
tp3503
a(S'good'
p3504
S'time'
p3505
tp3506
a(S'littl'
p3507
S'unsur'
p3508
tp3509
a(S'someth'
p3510
g2499
tp3511
a(S'great'
p3512
S'feel'
p3513
tp3514
a(S'not'
p3515
S'anyth'
p3516
tp3517
a(S'life'
p3518
g3342
tp3519
a(S'struggl'
p3520
S'feel'
p3521
tp3522
a(S'like'
p3523
S'time'
p3524
tp3525
a(S'ha'
p3526
S'given'
p3527
tp3528
a(g3307
S'get'
p3529
tp3530
a(S'know'
p3531
S'get'
p3532
tp3533
a(S'still'
p3534
S'love'
p3535
tp3536
a(S'around'
p3537
S'thi'
p3538
tp3539
a(S'know'
p3540
S'thing'
p3541
tp3542
a(S'go'
p3543
S'around'
p3544
tp3545
a(S'want'
p3546
S'take'
p3547
tp3548
a(S'someth'
p3549
S'wrong'
p3550
tp3551
a(S'ive'
p3552
S'tri'
p3553
tp3554
a(S'not'
p3555
S'give'
p3556
tp3557
a(S'bit'
p3558
S'shi'
p3559
tp3560
a(S'someon'
p3561
S'ha'
p3562
tp3563
a(S'wa'
p3564
S'sit'
p3565
tp3566
a(S'wonder'
p3567
S'feel'
p3568
tp3569
a(S'school'
p3570
S'feel'
p3571
tp3572
a(S'feel'
p3573
S'complac'
p3574
tp3575
a(S'alway'
p3576
S'make'
p3577
tp3578
a(S'veri'
p3579
S'weird'
p3580
tp3581
a(S'real'
p3582
S'life'
p3583
tp3584
a(S'like'
p3585
g651
tp3586
a(S'move'
p3587
S'forward'
p3588
tp3589
a(S'feel'
p3590
S'valuabl'
p3591
tp3592
a(S'veri'
p3593
S'unsur'
p3594
tp3595
a(S'peopl'
p3596
g3443
tp3597
a(S'look'
p3598
S'thi'
p3599
tp3600
a(S'thi'
p3601
S'befor'
p3602
tp3603
a(S'enjoy'
p3604
S'feel'
p3605
tp3606
a(S'girl'
p3607
S'feel'
p3608
tp3609
a(S'thi'
p3610
S'month'
p3611
tp3612
a(S'act'
p3613
S'like'
p3614
tp3615
a(S'realli'
p3616
S'bad'
p3617
tp3618
a(S'bit'
p3619
S'funni'
p3620
tp3621
a(S'close'
p3622
S'friend'
p3623
tp3624
a(S'month'
p3625
S'ago'
p3626
tp3627
a(S'feel'
p3628
S'mildli'
p3629
tp3630
a(S'imagin'
p3631
S'feel'
p3632
tp3633
a(S'never'
p3634
S'get'
p3635
tp3636
a(g1783
S'thi'
p3637
tp3638
a(S'sorri'
p3639
S'feel'
p3640
tp3641
a(S'feel'
p3642
S'left'
p3643
tp3644
a(S'still'
p3645
S'want'
p3646
tp3647
a(S'veri'
p3648
S'overwhelm'
p3649
tp3650
a(S'student'
p3651
S'feel'
p3652
tp3653
a(S'get'
p3654
S'know'
p3655
tp3656
a(S'feel'
p3657
S'tragic'
p3658
tp3659
a(S'mad'
p3660
S'sad'
p3661
tp3662
a(S'like'
p3663
S'way'
p3664
tp3665
a(S'especi'
p3666
S'feel'
p3667
tp3668
a(S'not'
p3669
S'care'
p3670
tp3671
a(S'like'
p3672
S'might'
p3673
tp3674
a(S'wa'
p3675
S'thi'
p3676
tp3677
a(S'get'
p3678
S'sick'
p3679
tp3680
a(S'like'
p3681
S'mayb'
p3682
tp3683
a(S'feel'
p3684
S'highli'
p3685
tp3686
a(S'feel'
p3687
S'bodi'
p3688
tp3689
a(S'famili'
p3690
S'member'
p3691
tp3692
a(g480
S'thi'
p3693
tp3694
a(S'wrong'
p3695
S'feel'
p3696
tp3697
a(S'need'
p3698
S'go'
p3699
tp3700
a(S'littl'
p3701
S'one'
p3702
tp3703
a(S'im'
p3704
g2541
tp3705
a(S'think'
p3706
S'someth'
p3707
tp3708
a(S'look'
p3709
S'mirror'
p3710
tp3711
a(S'wouldn'
p3712
S'feel'
p3713
tp3714
a(S'sad'
p3715
S'becaus'
p3716
tp3717
a(S'fall'
p3718
S'asleep'
p3719
tp3720
a(S'realli'
p3721
S'amaz'
p3722
tp3723
a(S'make'
p3724
S'us'
p3725
tp3726
a(S'feel'
p3727
S'petrifi'
p3728
tp3729
a(S'run'
p3730
S'away'
p3731
tp3732
a(S'get'
p3733
S'hurt'
p3734
tp3735
a(S'feel'
p3736
S'physic'
p3737
tp3738
a(S'never'
p3739
S'thought'
p3740
tp3741
a(S'self'
p3742
S'consciou'
p3743
tp3744
a(S'alway'
p3745
S'get'
p3746
tp3747
a(S'feel'
p3748
S'perfect'
p3749
tp3750
a(S'overwhelm'
p3751
S'need'
p3752
tp3753
a(S'like'
p3754
S'talk'
p3755
tp3756
a(S'feel'
p3757
S'punish'
p3758
tp3759
a(S'onli'
p3760
S'becaus'
p3761
tp3762
a(S'veri'
p3763
S'nervou'
p3764
tp3765
a(S'littl'
p3766
S'cranki'
p3767
tp3768
a(S'someth'
p3769
S'happen'
p3770
tp3771
a(S'world'
p3772
S'feel'
p3773
tp3774
a(S'id'
p3775
S'rather'
p3776
tp3777
a(S'like'
p3778
S'heartless'
p3779
tp3780
a(S'think'
p3781
S'like'
p3782
tp3783
a(S'feel'
p3784
S'blank'
p3785
tp3786
a(S'ha'
p3787
S'done'
p3788
tp3789
a(S'much'
p3790
S'love'
p3791
tp3792
a(S'simpli'
p3793
S'becaus'
p3794
tp3795
a(S'weird'
p3796
S'write'
p3797
tp3798
a(S'feel'
p3799
S'said'
p3800
tp3801
a(S'fall'
p3802
S'love'
p3803
tp3804
a(S'quit'
p3805
S'sure'
p3806
tp3807
a(S'get'
p3808
S'home'
p3809
tp3810
a(S'walk'
p3811
S'feel'
p3812
tp3813
a(S'mostli'
p3814
S'feel'
p3815
tp3816
a(S'not'
p3817
S'look'
p3818
tp3819
a(S'would'
p3820
S'find'
p3821
tp3822
a(S'past'
p3823
g2645
tp3824
a(S'becaus'
p3825
S'still'
p3826
tp3827
a(S'quit'
p3828
S'surpris'
p3829
tp3830
a(S'realli'
p3831
S'piss'
p3832
tp3833
a(S'not'
p3834
S'tri'
p3835
tp3836
a(S'im'
p3837
S'one'
p3838
tp3839
a(S'someth'
p3840
S'strang'
p3841
tp3842
a(S'help'
p3843
S'peopl'
p3844
tp3845
a(S'kind'
p3846
S'strang'
p3847
tp3848
a(S'person'
p3849
S'not'
p3850
tp3851
a(S'pay'
p3852
S'attent'
p3853
tp3854
a(S'peopl'
p3855
S'becaus'
p3856
tp3857
a(S'overwhelm'
p3858
S'life'
p3859
tp3860
a(S'feel'
p3861
S'urg'
p3862
tp3863
a(S'im'
p3864
S'sick'
p3865
tp3866
a(S'im'
p3867
S'suppos'
p3868
tp3869
a(S'bit'
p3870
S'surpris'
p3871
tp3872
a(S'slightli'
p3873
S'daze'
p3874
tp3875
a(S'feel'
p3876
S'moros'
p3877
tp3878
a(S'mad'
p3879
S'feel'
p3880
tp3881
a(S'feel'
p3882
S'friendli'
p3883
tp3884
a(S'read'
p3885
S'feel'
p3886
tp3887
a(S'one'
p3888
S'way'
p3889
tp3890
a(S'lot'
p3891
g2263
tp3892
a(S'like'
p3893
S'amaz'
p3894
tp3895
a(S'tell'
p3896
S'im'
p3897
tp3898
a(S'not'
p3899
S'mention'
p3900
tp3901
a(S'thi'
p3902
S'ha'
p3903
tp3904
a(S'go'
p3905
S'go'
p3906
tp3907
a(S'like'
p3908
S'strang'
p3909
tp3910
a(S'mayb'
p3911
S'even'
p3912
tp3913
a(S'feel'
p3914
S'eas'
p3915
tp3916
a(S'good'
p3917
S'way'
p3918
tp3919
a(S'sinc'
p3920
S'im'
p3921
tp3922
a(S'recal'
p3923
S'feel'
p3924
tp3925
a(S'go'
p3926
S'happen'
p3927
tp3928
a(S'explain'
p3929
S'feel'
p3930
tp3931
a(S'feel'
p3932
S'move'
p3933
tp3934
a(S'rest'
p3935
S'day'
p3936
tp3937
a(S'day'
p3938
S'long'
p3939
tp3940
a(S'enough'
p3941
S'time'
p3942
tp3943
a(S'im'
p3944
S'kind'
p3945
tp3946
a(S'veri'
p3947
S'bless'
p3948
tp3949
a(S'know'
p3950
S'one'
p3951
tp3952
a(S'thi'
p3953
S'life'
p3954
tp3955
a(S'feel'
p3956
S'repress'
p3957
tp3958
a(S'veri'
p3959
S'well'
p3960
tp3961
a(S'make'
p3962
S'thing'
p3963
tp3964
a(g2673
S'like'
p3965
tp3966
a(S'ive'
p3967
S'spent'
p3968
tp3969
a(S'way'
p3970
S'get'
p3971
tp3972
a(S'veri'
p3973
S'uncomfort'
p3974
tp3975
a(S'feel'
p3976
S'39'
p3977
tp3978
a(g1155
S'life'
p3979
tp3980
a(S'think'
p3981
S'make'
p3982
tp3983
a(S'time'
p3984
S'see'
p3985
tp3986
a(S'like'
p3987
S'39'
p3988
tp3989
a(S'veri'
p3990
S'agit'
p3991
tp3992
a(S'wa'
p3993
S'never'
p3994
tp3995
a(S'realli'
p3996
S'agit'
p3997
tp3998
a(S'realli'
p3999
S'surpris'
p4000
tp4001
a(S'thi'
p4002
S'issu'
p4003
tp4004
a(S'like'
p4005
S'see'
p4006
tp4007
a(S'like'
p4008
S'use'
p4009
tp4010
a(S'wa'
p4011
S'much'
p4012
tp4013
a(S'like'
p4014
S'live'
p4015
tp4016
a(S'chang'
p4017
S'feel'
p4018
tp4019
a(S'didn'
p4020
S'know'
p4021
tp4022
a(S'veri'
p4023
S'impati'
p4024
tp4025
a(g3524
S'like'
p4026
tp4027
a(S'thing'
p4028
S'thi'
p4029
tp4030
a(S'tri'
p4031
S'rememb'
p4032
tp4033
a(S'strang'
p4034
S'way'
p4035
tp4036
a(S'get'
p4037
S'much'
p4038
tp4039
a(S'ive'
p4040
S'learn'
p4041
tp4042
a(S'think'
p4043
S'could'
p4044
tp4045
a(S'feel'
p4046
S'part'
p4047
tp4048
a(S'normal'
p4049
S'feel'
p4050
tp4051
a(S'mayb'
p4052
S'feel'
p4053
tp4054
a(S'think'
p4055
S'ive'
p4056
tp4057
a(S'wast'
p4058
S'time'
p4059
tp4060
a(S'wa'
p4061
S'work'
p4062
tp4063
a(S'comfort'
p4064
S'zone'
p4065
tp4066
a(S'ever'
p4067
S'sinc'
p4068
tp4069
a(S'everyon'
p4070
S'feel'
p4071
tp4072
a(S'like'
p4073
S'wrong'
p4074
tp4075
a(S'lose'
p4076
S'weight'
p4077
tp4078
a(S'talk'
p4079
S'peopl'
p4080
tp4081
a(S'love'
p4082
S'way'
p4083
tp4084
a(S'wa'
p4085
S'home'
p4086
tp4087
a(g53
S'movi'
p4088
tp4089
a(S'im'
p4090
S'punish'
p4091
tp4092
a(S'feel'
p4093
S'whi'
p4094
tp4095
a(S'told'
p4096
S'feel'
p4097
tp4098
a(S'explain'
p4099
S'whi'
p4100
tp4101
a(S'feel'
p4102
S'differ'
p4103
tp4104
a(g3924
S'genuin'
p4105
tp4106
a(S'see'
p4107
S'hi'
p4108
tp4109
a(S'get'
p4110
S'way'
p4111
tp4112
a(S'right'
p4113
S'away'
p4114
tp4115
a(S'feel'
p4116
S'constantli'
p4117
tp4118
a(S'wa'
p4119
S'come'
p4120
tp4121
a(S'ive'
p4122
S'made'
p4123
tp4124
a(S'peopl'
p4125
S'make'
p4126
tp4127
a(S'got'
p4128
S'back'
p4129
tp4130
a(g2326
g3970
tp4131
a(S'realli'
p4132
S'strang'
p4133
tp4134
a(S'get'
p4135
S'distract'
p4136
tp4137
a(S'time'
p4138
S'life'
p4139
tp4140
a(S'seem'
p4141
S'feel'
p4142
tp4143
a(S'strang'
p4144
S'sensat'
p4145
tp4146
a(S'love'
p4147
S'much'
p4148
tp4149
a(S'mani'
p4150
S'year'
p4151
tp4152
a(S'veri'
p4153
S'lucki'
p4154
tp4155
a(S'get'
p4156
S'away'
p4157
tp4158
a(S'thi'
p4159
S'song'
p4160
tp4161
a(S'thi'
p4162
S'may'
p4163
tp4164
a(S'care'
p4165
S'feel'
p4166
tp4167
a(S'feel'
p4168
S'unpleas'
p4169
tp4170
a(S'peopl'
p4171
S'realli'
p4172
tp4173
a(S'time'
p4174
S'ha'
p4175
tp4176
a(S'littl'
p4177
S'bitter'
p4178
tp4179
a(S'know'
p4180
S'want'
p4181
tp4182
a(S'becaus'
p4183
S'love'
p4184
tp4185
a(S'could'
p4186
S'tell'
p4187
tp4188
a(S'im'
p4189
S'fuck'
p4190
tp4191
a(S'point'
p4192
S'wa'
p4193
tp4194
a(S'way'
p4195
S'home'
p4196
tp4197
a(S'whether'
p4198
S'not'
p4199
tp4200
a(S'live'
p4201
S'feel'
p4202
tp4203
a(S'like'
p4204
S'fake'
p4205
tp4206
a(S'admit'
p4207
S'wa'
p4208
tp4209
a(S'done'
p4210
S'thi'
p4211
tp4212
a(S'ha'
p4213
S'feel'
p4214
tp4215
a(S'could'
p4216
g273
tp4217
a(S'like'
p4218
S'ani'
p4219
tp4220
a(S'spend'
p4221
g1274
tp4222
a(S'realli'
p4223
S'irrit'
p4224
tp4225
a(S'full'
p4226
S'time'
p4227
tp4228
a(S'make'
p4229
S'differ'
p4230
tp4231
a(S'everyon'
p4232
S'around'
p4233
tp4234
a(S'peopl'
p4235
S'tell'
p4236
tp4237
a(S'bit'
p4238
S'intimid'
p4239
tp4240
a(S'post'
p4241
S'someth'
p4242
tp4243
a(S'time'
p4244
S'go'
p4245
tp4246
a(S'talk'
p4247
S'becaus'
p4248
tp4249
a(S'true'
p4250
S'feel'
p4251
tp4252
a(S'impress'
p4253
S'share'
p4254
tp4255
a(S'sure'
p4256
S'im'
p4257
tp4258
a(S'one'
p4259
S'wa'
p4260
tp4261
a(S'know'
p4262
S'much'
p4263
tp4264
a(S'frustrat'
p4265
g1040
tp4266
a(S'sure'
p4267
S'wa'
p4268
tp4269
a(S'think'
p4270
S'whi'
p4271
tp4272
a(S'sure'
p4273
S'thi'
p4274
tp4275
a(S'offic'
p4276
S'feel'
p4277
tp4278
a(S'keep'
p4279
S'get'
p4280
tp4281
a(S'think'
p4282
S'mayb'
p4283
tp4284
a(S'littl'
p4285
S'agit'
p4286
tp4287
a(S'next'
p4288
g1482
tp4289
a(S'even'
p4290
S'im'
p4291
tp4292
a(S'im'
p4293
S'use'
p4294
tp4295
a(S'cultur'
p4296
S'shock'
p4297
tp4298
a(S'thing'
p4299
S'come'
p4300
tp4301
a(S'want'
p4302
S'write'
p4303
tp4304
a(g769
S'didnt'
p4305
tp4306
a(S'face'
p4307
S'feel'
p4308
tp4309
a(S'rememb'
p4310
S'wa'
p4311
tp4312
a(S'ha'
p4313
S'gone'
p4314
tp4315
a(S'feel'
p4316
S'self'
p4317
tp4318
a(S'get'
p4319
S'use'
p4320
tp4321
a(S'impress'
p4322
S'upon'
p4323
tp4324
a(S'amaz'
p4325
S'much'
p4326
tp4327
a(S'know'
p4328
g929
tp4329
a(S'shock'
p4330
S'see'
p4331
tp4332
a(S'feel'
p4333
S'mayb'
p4334
tp4335
a(S'sometim'
p4336
S'get'
p4337
tp4338
a(S'feel'
p4339
S'eleg'
p4340
tp4341
a(S'watch'
p4342
S'tv'
p4343
tp4344
a(S'find'
p4345
S'someth'
p4346
tp4347
a(S'whether'
p4348
S'feel'
p4349
tp4350
a(S'bad'
p4351
S'day'
p4352
tp4353
a(S'wa'
p4354
S'first'
p4355
tp4356
a(S'wa'
p4357
S'kind'
p4358
tp4359
a(S'39'
p4360
S'know'
p4361
tp4362
a(S'bit'
p4363
S'reluct'
p4364
tp4365
a(S'singl'
p4366
S'day'
p4367
tp4368
a(S'veri'
p4369
S'vulner'
p4370
tp4371
a(S'want'
p4372
S'stop'
p4373
tp4374
a(g3221
S'not'
p4375
tp4376
a(S'becaus'
p4377
S'one'
p4378
tp4379
a(S'notic'
p4380
S'feel'
p4381
tp4382
a(S'veri'
p4383
S'distress'
p4384
tp4385
a(S'feel'
p4386
S'take'
p4387
tp4388
a(S'wa'
p4389
S'talk'
p4390
tp4391
a(S'give'
p4392
S'feel'
p4393
tp4394
a(S'went'
p4395
S'back'
p4396
tp4397
a(S'close'
p4398
S'eye'
p4399
tp4400
a(S'becaus'
p4401
S'would'
p4402
tp4403
a(S'becaus'
p4404
S'havent'
p4405
tp4406
a(S'day'
p4407
S'ago'
p4408
tp4409
a(g1837
S'like'
p4410
tp4411
a(S'feel'
p4412
S'dismay'
p4413
tp4414
a(S'say'
p4415
S'not'
p4416
tp4417
a(S'like'
p4418
S'curiou'
p4419
tp4420
a(S'ive'
p4421
S'becom'
p4422
tp4423
a(S'feel'
p4424
S'fearless'
p4425
tp4426
a(S'put'
p4427
g3274
tp4428
a(S'deep'
p4429
S'insid'
p4430
tp4431
a(S'cant'
p4432
S'believ'
p4433
tp4434
a(S'exactli'
p4435
S'feel'
p4436
tp4437
a(S'ive'
p4438
S'also'
p4439
tp4440
a(S'skin'
p4441
S'feel'
p4442
tp4443
a(S'veri'
p4444
S'passion'
p4445
tp4446
a(S'feel'
p4447
S'control'
p4448
tp4449
a(S'hear'
p4450
g1776
tp4451
a(S'yet'
p4452
S'anoth'
p4453
tp4454
a(S'enjoy'
p4455
S'thi'
p4456
tp4457
a(S'hair'
p4458
S'feel'
p4459
tp4460
a(S'everyth'
p4461
g3247
tp4462
a(S'one'
p4463
S'night'
p4464
tp4465
a(S'person'
p4466
S'wa'
p4467
tp4468
a(S'right'
p4469
S'thing'
p4470
tp4471
a(S'even'
p4472
S'wa'
p4473
tp4474
a(S'someth'
p4475
S'funni'
p4476
tp4477
a(S'not'
p4478
S'ani'
p4479
tp4480
a(S'feel'
p4481
S'popular'
p4482
tp4483
a(S'ive'
p4484
S'ever'
p4485
tp4486
a(S'not'
p4487
S'allow'
p4488
tp4489
a(S'feel'
p4490
S'resign'
p4491
tp4492
a(S'next'
p4493
S'morn'
p4494
tp4495
a(S'mayb'
p4496
S'becaus'
p4497
tp4498
a(S'time'
p4499
S'sinc'
p4500
tp4501
a(S'look'
p4502
S'good'
p4503
tp4504
a(S'thi'
p4505
S'could'
p4506
tp4507
a(S'also'
p4508
S'know'
p4509
tp4510
a(S'not'
p4511
S'entir'
p4512
tp4513
a(S'realli'
p4514
S'overwhelm'
p4515
tp4516
a(S'thought'
p4517
S'thi'
p4518
tp4519
a(S'veri'
p4520
S'dissatisfi'
p4521
tp4522
a(S'one'
p4523
S'anoth'
p4524
tp4525
a(S'situat'
p4526
S'feel'
p4527
tp4528
a(S'not'
p4529
S'write'
p4530
tp4531
a(S'gut'
p4532
S'feel'
p4533
tp4534
a(S'ive'
p4535
S'gotten'
p4536
tp4537
a(S'realli'
p4538
S'curiou'
p4539
tp4540
a(S'live'
p4541
S'thi'
p4542
tp4543
a(S'im'
p4544
S'write'
p4545
tp4546
a(S'wa'
p4547
S'even'
p4548
tp4549
a(S'today'
p4550
S'im'
p4551
tp4552
a(S'know'
p4553
S'love'
p4554
tp4555
a(S'not'
p4556
S'work'
p4557
tp4558
a(S'feel'
p4559
S'sociabl'
p4560
tp4561
a(S'im'
p4562
S'sit'
p4563
tp4564
a(S'feel'
p4565
S'felt'
p4566
tp4567
a(S'daili'
p4568
S'basi'
p4569
tp4570
a(S'ignor'
p4571
S'feel'
p4572
tp4573
a(S'thi'
p4574
S'stuff'
p4575
tp4576
a(g4103
S'feel'
p4577
tp4578
a(S'think'
p4579
S'mani'
p4580
tp4581
a(S'feel'
p4582
S'day'
p4583
tp4584
a(S'feel'
p4585
S'stronger'
p4586
tp4587
a(S'also'
p4588
S'becaus'
p4589
tp4590
a(S'ani'
p4591
S'kind'
p4592
tp4593
a(S'thing'
p4594
S'say'
p4595
tp4596
a(S'need'
p4597
S'know'
p4598
tp4599
a(S'veri'
p4600
S'apprehens'
p4601
tp4602
a(S'would'
p4603
g663
tp4604
a(S'veri'
p4605
S'shaki'
p4606
tp4607
a(g4032
S'thi'
p4608
tp4609
a(S'im'
p4610
S'work'
p4611
tp4612
a(S'women'
p4613
S'feel'
p4614
tp4615
a(S'veri'
p4616
S'excit'
p4617
tp4618
a(S'say'
p4619
S'goodby'
p4620
tp4621
a(S'smile'
p4622
S'feel'
p4623
tp4624
a(S'wa'
p4625
g755
tp4626
a(S'funni'
p4627
S'becaus'
p4628
tp4629
a(S'home'
p4630
S'work'
p4631
tp4632
a(S'wa'
p4633
S'good'
p4634
tp4635
a(S'know'
p4636
S'know'
p4637
tp4638
a(S'guilti'
p4639
S'feel'
p4640
tp4641
a(S'know'
p4642
g1353
tp4643
a(S'get'
p4644
S'veri'
p4645
tp4646
a(S'good'
p4647
S'job'
p4648
tp4649
a(S'feel'
p4650
S'read'
p4651
tp4652
a(S'think'
p4653
S'back'
p4654
tp4655
a(S'amaz'
p4656
S'wa'
p4657
tp4658
a(S'pretti'
p4659
S'rotten'
p4660
tp4661
a(S'someth'
p4662
S'never'
p4663
tp4664
a(S'see'
p4665
S'someth'
p4666
tp4667
a(S'dull'
p4668
S'ach'
p4669
tp4670
a(S'could'
p4671
S'make'
p4672
tp4673
a(S'import'
p4674
S'thing'
p4675
tp4676
a(S'tortur'
p4677
S'soul'
p4678
tp4679
a(S'one'
p4680
S'year'
p4681
tp4682
a(S'physic'
p4683
S'emot'
p4684
tp4685
a(S'feel'
p4686
S'casual'
p4687
tp4688
a(S'think'
p4689
S'realli'
p4690
tp4691
a(S'veri'
p4692
S'honour'
p4693
tp4694
a(S'talk'
p4695
S'thi'
p4696
tp4697
a(S'admit'
p4698
S'thi'
p4699
tp4700
a(S'time'
p4701
g1106
tp4702
a(S'veri'
p4703
S'anxiou'
p4704
tp4705
a(S'day'
p4706
S'not'
p4707
tp4708
a(S'want'
p4709
S'work'
p4710
tp4711
a(S'know'
p4712
g2107
tp4713
a(g612
S'mad'
p4714
tp4715
a(S'know'
p4716
S'lot'
p4717
tp4718
a(S'like'
p4719
S'sometim'
p4720
tp4721
a(S'becaus'
p4722
S'like'
p4723
tp4724
a(S'shock'
p4725
S'becaus'
p4726
tp4727
a(S'time'
p4728
S'year'
p4729
tp4730
a(S'thi'
p4731
S'thing'
p4732
tp4733
a(S'amaz'
p4734
S'time'
p4735
tp4736
a(S'time'
p4737
S'realli'
p4738
tp4739
a(S'think'
p4740
S'much'
p4741
tp4742
a(S'wa'
p4743
S'alway'
p4744
tp4745
a(S'get'
p4746
S'annoy'
p4747
tp4748
a(S'want'
p4749
S'tell'
p4750
tp4751
a(S'time'
p4752
S'even'
p4753
tp4754
a(g3200
S'work'
p4755
tp4756
a(S'veri'
p4757
S'sad'
p4758
tp4759
a(S'sometim'
p4760
S'im'
p4761
tp4762
a(S'strang'
p4763
S'becaus'
p4764
tp4765
a(S'everi'
p4766
S'one'
p4767
tp4768
a(S'feel'
p4769
S'oddli'
p4770
tp4771
a(S'like'
p4772
S'punish'
p4773
tp4774
a(S'thi'
p4775
S'situat'
p4776
tp4777
a(S'peopl'
p4778
S'live'
p4779
tp4780
a(S'like'
p4781
S'idiot'
p4782
tp4783
a(S'hold'
p4784
S'feel'
p4785
tp4786
a(S'like'
p4787
S'got'
p4788
tp4789
a(g2783
S'peopl'
p4790
tp4791
a(S'rel'
p4792
S'bookmark'
p4793
tp4794
a(S'funni'
p4795
S'feel'
p4796
tp4797
a(S'step'
p4798
S'back'
p4799
tp4800
a(S'like'
p4801
S'beaten'
p4802
tp4803
a(S'believ'
p4804
S'feel'
p4805
tp4806
a(S'emot'
p4807
S'drain'
p4808
tp4809
a(S'feel'
p4810
S'startl'
p4811
tp4812
a(S'current'
p4813
S'feel'
p4814
tp4815
a(S'room'
p4816
S'feel'
p4817
tp4818
a(S'sinc'
p4819
S'feel'
p4820
tp4821
a(S'even'
p4822
S'get'
p4823
tp4824
a(S'like'
p4825
S'support'
p4826
tp4827
a(S'get'
p4828
S'older'
p4829
tp4830
a(S'day'
p4831
S'befor'
p4832
tp4833
a(S'feel'
p4834
S'everyon'
p4835
tp4836
a(S'feel'
p4837
S'resolv'
p4838
tp4839
a(S'becaus'
p4840
S'onli'
p4841
tp4842
a(S'dure'
p4843
S'time'
p4844
tp4845
a(S'realli'
p4846
S'didnt'
p4847
tp4848
a(S'im'
p4849
S'tortur'
p4850
tp4851
a(S'feel'
p4852
S'wasnt'
p4853
tp4854
a(S'chang'
p4855
S'life'
p4856
tp4857
a(S'way'
p4858
S'go'
p4859
tp4860
a(S'wa'
p4861
S'stand'
p4862
tp4863
a(S'start'
p4864
S'think'
p4865
tp4866
a(S'take'
p4867
S'place'
p4868
tp4869
a(S'read'
p4870
S'blog'
p4871
tp4872
a(S'right'
p4873
S'becaus'
p4874
tp4875
a(S'feel'
p4876
S'bash'
p4877
tp4878
a(S'see'
p4879
S'thing'
p4880
tp4881
a(S'know'
p4882
S'make'
p4883
tp4884
a(S'know'
p4885
S'exactli'
p4886
tp4887
a(S'social'
p4888
S'media'
p4889
tp4890
a(S'love'
p4891
S'peopl'
p4892
tp4893
a(S'put'
p4894
S'thi'
p4895
tp4896
a(g2899
S'understand'
p4897
tp4898
a(g4690
S'wa'
p4899
tp4900
a(S'wish'
p4901
S'wa'
p4902
tp4903
a(S'im'
p4904
g3706
tp4905
a(S'wa'
p4906
S'young'
p4907
tp4908
a(S'ha'
p4909
S'left'
p4910
tp4911
a(S'much'
p4912
S'thi'
p4913
tp4914
a(S'hi'
p4915
S'feel'
p4916
tp4917
a(S'veri'
p4918
S'privileg'
p4919
tp4920
a(S'peopl'
p4921
S'go'
p4922
tp4923
a(S'kinda'
p4924
S'weird'
p4925
tp4926
a(S'put'
p4927
S'togeth'
p4928
tp4929
a(S'see'
p4930
g1839
tp4931
a(S'feel'
p4932
S'support'
p4933
tp4934
a(S'im'
p4935
S'excit'
p4936
tp4937
a(S'like'
p4938
S'greedi'
p4939
tp4940
a(S'time'
p4941
S'pass'
p4942
tp4943
a(S'class'
p4944
S'feel'
p4945
tp4946
a(S'cant'
p4947
S'realli'
p4948
tp4949
a(S'feel'
p4950
S'radiant'
p4951
tp4952
a(S'ill'
p4953
S'never'
p4954
tp4955
a(S'thing'
p4956
S'dont'
p4957
tp4958
a.